
/mnt/c/Users/25693/Desktop/math/Computer_system/CPU/riscv/testspace/test.om:     file format elf32-littleriscv


Disassembly of section .rom:

00000000 <.rom>:
   0:	00020137          	lui	sp,0x20
   4:	030040ef          	jal	ra,4034 <main>
   8:	0ff00513          	li	a0,255
   c:	000306b7          	lui	a3,0x30
  10:	00a68223          	sb	a0,4(a3) # 30004 <__heap_start+0x2b004>
  14:	ff9ff06f          	j	c <f-0xff4>

Disassembly of section .text:

00001000 <f>:
    1000:	fe010113          	addi	sp,sp,-32 # 1ffe0 <__heap_start+0x1afe0>
    1004:	00912a23          	sw	s1,20(sp)
    1008:	00058493          	mv	s1,a1
    100c:	00050593          	mv	a1,a0
    1010:	00112e23          	sw	ra,28(sp)
    1014:	00812c23          	sw	s0,24(sp)
    1018:	01212823          	sw	s2,16(sp)
    101c:	00060413          	mv	s0,a2
    1020:	01312623          	sw	s3,12(sp)
    1024:	3f0020ef          	jal	ra,3414 <__mulsf3>
    1028:	000057b7          	lui	a5,0x5
    102c:	8307a583          	lw	a1,-2000(a5) # 4830 <__clz_tab+0x10c>
    1030:	00050913          	mv	s2,a0
    1034:	00048513          	mv	a0,s1
    1038:	3dc020ef          	jal	ra,3414 <__mulsf3>
    103c:	00048593          	mv	a1,s1
    1040:	3d4020ef          	jal	ra,3414 <__mulsf3>
    1044:	00090593          	mv	a1,s2
    1048:	1a9010ef          	jal	ra,29f0 <__addsf3>
    104c:	00050993          	mv	s3,a0
    1050:	00040593          	mv	a1,s0
    1054:	00040513          	mv	a0,s0
    1058:	3bc020ef          	jal	ra,3414 <__mulsf3>
    105c:	00050593          	mv	a1,a0
    1060:	00098513          	mv	a0,s3
    1064:	18d010ef          	jal	ra,29f0 <__addsf3>
    1068:	000057b7          	lui	a5,0x5
    106c:	8347a583          	lw	a1,-1996(a5) # 4834 <__clz_tab+0x110>
    1070:	708020ef          	jal	ra,3778 <__subsf3>
    1074:	00050593          	mv	a1,a0
    1078:	00050993          	mv	s3,a0
    107c:	398020ef          	jal	ra,3414 <__mulsf3>
    1080:	00098593          	mv	a1,s3
    1084:	390020ef          	jal	ra,3414 <__mulsf3>
    1088:	00050793          	mv	a5,a0
    108c:	00040593          	mv	a1,s0
    1090:	00090513          	mv	a0,s2
    1094:	00078913          	mv	s2,a5
    1098:	37c020ef          	jal	ra,3414 <__mulsf3>
    109c:	00040593          	mv	a1,s0
    10a0:	374020ef          	jal	ra,3414 <__mulsf3>
    10a4:	00040593          	mv	a1,s0
    10a8:	36c020ef          	jal	ra,3414 <__mulsf3>
    10ac:	00050593          	mv	a1,a0
    10b0:	00090513          	mv	a0,s2
    10b4:	6c4020ef          	jal	ra,3778 <__subsf3>
    10b8:	000057b7          	lui	a5,0x5
    10bc:	8387a583          	lw	a1,-1992(a5) # 4838 <__clz_tab+0x114>
    10c0:	00050913          	mv	s2,a0
    10c4:	00048513          	mv	a0,s1
    10c8:	34c020ef          	jal	ra,3414 <__mulsf3>
    10cc:	00048593          	mv	a1,s1
    10d0:	344020ef          	jal	ra,3414 <__mulsf3>
    10d4:	00040593          	mv	a1,s0
    10d8:	33c020ef          	jal	ra,3414 <__mulsf3>
    10dc:	00040593          	mv	a1,s0
    10e0:	334020ef          	jal	ra,3414 <__mulsf3>
    10e4:	00040593          	mv	a1,s0
    10e8:	32c020ef          	jal	ra,3414 <__mulsf3>
    10ec:	00050593          	mv	a1,a0
    10f0:	00090513          	mv	a0,s2
    10f4:	684020ef          	jal	ra,3778 <__subsf3>
    10f8:	01c12083          	lw	ra,28(sp)
    10fc:	01812403          	lw	s0,24(sp)
    1100:	01412483          	lw	s1,20(sp)
    1104:	01012903          	lw	s2,16(sp)
    1108:	00c12983          	lw	s3,12(sp)
    110c:	02010113          	addi	sp,sp,32
    1110:	00008067          	ret

00001114 <h>:
    1114:	fd010113          	addi	sp,sp,-48
    1118:	03212023          	sw	s2,32(sp)
    111c:	00058913          	mv	s2,a1
    1120:	00050593          	mv	a1,a0
    1124:	02112623          	sw	ra,44(sp)
    1128:	02812423          	sw	s0,40(sp)
    112c:	01312e23          	sw	s3,28(sp)
    1130:	01412c23          	sw	s4,24(sp)
    1134:	01512a23          	sw	s5,20(sp)
    1138:	01612823          	sw	s6,16(sp)
    113c:	01712623          	sw	s7,12(sp)
    1140:	01812423          	sw	s8,8(sp)
    1144:	01912223          	sw	s9,4(sp)
    1148:	02912223          	sw	s1,36(sp)
    114c:	2c8020ef          	jal	ra,3414 <__mulsf3>
    1150:	00050993          	mv	s3,a0
    1154:	00090593          	mv	a1,s2
    1158:	00090513          	mv	a0,s2
    115c:	2b8020ef          	jal	ra,3414 <__mulsf3>
    1160:	00098593          	mv	a1,s3
    1164:	00050a93          	mv	s5,a0
    1168:	00090513          	mv	a0,s2
    116c:	2a8020ef          	jal	ra,3414 <__mulsf3>
    1170:	00090593          	mv	a1,s2
    1174:	2a0020ef          	jal	ra,3414 <__mulsf3>
    1178:	00090593          	mv	a1,s2
    117c:	298020ef          	jal	ra,3414 <__mulsf3>
    1180:	000057b7          	lui	a5,0x5
    1184:	8347a403          	lw	s0,-1996(a5) # 4834 <__clz_tab+0x110>
    1188:	000057b7          	lui	a5,0x5
    118c:	8307ac83          	lw	s9,-2000(a5) # 4830 <__clz_tab+0x10c>
    1190:	000057b7          	lui	a5,0x5
    1194:	8387ac03          	lw	s8,-1992(a5) # 4838 <__clz_tab+0x114>
    1198:	000057b7          	lui	a5,0x5
    119c:	83c7ab83          	lw	s7,-1988(a5) # 483c <__clz_tab+0x118>
    11a0:	00050a13          	mv	s4,a0
    11a4:	00040b13          	mv	s6,s0
    11a8:	0180006f          	j	11c0 <h+0xac>
    11ac:	5cc020ef          	jal	ra,3778 <__subsf3>
    11b0:	00000593          	li	a1,0
    11b4:	00050413          	mv	s0,a0
    11b8:	0a4020ef          	jal	ra,325c <__gesf2>
    11bc:	0c054c63          	bltz	a0,1294 <h+0x180>
    11c0:	000c8593          	mv	a1,s9
    11c4:	00040513          	mv	a0,s0
    11c8:	24c020ef          	jal	ra,3414 <__mulsf3>
    11cc:	00040593          	mv	a1,s0
    11d0:	244020ef          	jal	ra,3414 <__mulsf3>
    11d4:	00098593          	mv	a1,s3
    11d8:	019010ef          	jal	ra,29f0 <__addsf3>
    11dc:	000a8593          	mv	a1,s5
    11e0:	011010ef          	jal	ra,29f0 <__addsf3>
    11e4:	000b0593          	mv	a1,s6
    11e8:	590020ef          	jal	ra,3778 <__subsf3>
    11ec:	00050593          	mv	a1,a0
    11f0:	00050493          	mv	s1,a0
    11f4:	220020ef          	jal	ra,3414 <__mulsf3>
    11f8:	00048593          	mv	a1,s1
    11fc:	218020ef          	jal	ra,3414 <__mulsf3>
    1200:	000a0593          	mv	a1,s4
    1204:	574020ef          	jal	ra,3778 <__subsf3>
    1208:	00050493          	mv	s1,a0
    120c:	000c0593          	mv	a1,s8
    1210:	00040513          	mv	a0,s0
    1214:	200020ef          	jal	ra,3414 <__mulsf3>
    1218:	00040593          	mv	a1,s0
    121c:	1f8020ef          	jal	ra,3414 <__mulsf3>
    1220:	00090593          	mv	a1,s2
    1224:	1f0020ef          	jal	ra,3414 <__mulsf3>
    1228:	00090593          	mv	a1,s2
    122c:	1e8020ef          	jal	ra,3414 <__mulsf3>
    1230:	00090593          	mv	a1,s2
    1234:	1e0020ef          	jal	ra,3414 <__mulsf3>
    1238:	00050593          	mv	a1,a0
    123c:	00048513          	mv	a0,s1
    1240:	538020ef          	jal	ra,3778 <__subsf3>
    1244:	00000593          	li	a1,0
    1248:	0f0020ef          	jal	ra,3338 <__lesf2>
    124c:	00050793          	mv	a5,a0
    1250:	000b8593          	mv	a1,s7
    1254:	00040513          	mv	a0,s0
    1258:	f4f04ae3          	bgtz	a5,11ac <h+0x98>
    125c:	02c12083          	lw	ra,44(sp)
    1260:	00040513          	mv	a0,s0
    1264:	02812403          	lw	s0,40(sp)
    1268:	02412483          	lw	s1,36(sp)
    126c:	02012903          	lw	s2,32(sp)
    1270:	01c12983          	lw	s3,28(sp)
    1274:	01812a03          	lw	s4,24(sp)
    1278:	01412a83          	lw	s5,20(sp)
    127c:	01012b03          	lw	s6,16(sp)
    1280:	00c12b83          	lw	s7,12(sp)
    1284:	00812c03          	lw	s8,8(sp)
    1288:	00412c83          	lw	s9,4(sp)
    128c:	03010113          	addi	sp,sp,48
    1290:	00008067          	ret
    1294:	00000413          	li	s0,0
    1298:	fc5ff06f          	j	125c <h+0x148>

0000129c <mysqrt>:
    129c:	fe010113          	addi	sp,sp,-32
    12a0:	00000593          	li	a1,0
    12a4:	00812c23          	sw	s0,24(sp)
    12a8:	00112e23          	sw	ra,28(sp)
    12ac:	00912a23          	sw	s1,20(sp)
    12b0:	01212823          	sw	s2,16(sp)
    12b4:	01312623          	sw	s3,12(sp)
    12b8:	01412423          	sw	s4,8(sp)
    12bc:	01512223          	sw	s5,4(sp)
    12c0:	01612023          	sw	s6,0(sp)
    12c4:	00050413          	mv	s0,a0
    12c8:	721010ef          	jal	ra,31e8 <__eqsf2>
    12cc:	0a050463          	beqz	a0,1374 <mysqrt+0xd8>
    12d0:	000057b7          	lui	a5,0x5
    12d4:	8407a583          	lw	a1,-1984(a5) # 4840 <__clz_tab+0x11c>
    12d8:	00040513          	mv	a0,s0
    12dc:	03200b13          	li	s6,50
    12e0:	134020ef          	jal	ra,3414 <__mulsf3>
    12e4:	1c1020ef          	jal	ra,3ca4 <__extendsfdf2>
    12e8:	00050493          	mv	s1,a0
    12ec:	00040513          	mv	a0,s0
    12f0:	00058413          	mv	s0,a1
    12f4:	1b1020ef          	jal	ra,3ca4 <__extendsfdf2>
    12f8:	000057b7          	lui	a5,0x5
    12fc:	8607a903          	lw	s2,-1952(a5) # 4860 <__clz_tab+0x13c>
    1300:	8647a983          	lw	s3,-1948(a5)
    1304:	00050a93          	mv	s5,a0
    1308:	00058a13          	mv	s4,a1
    130c:	00048613          	mv	a2,s1
    1310:	00040693          	mv	a3,s0
    1314:	000a8513          	mv	a0,s5
    1318:	000a0593          	mv	a1,s4
    131c:	04d000ef          	jal	ra,1b68 <__divdf3>
    1320:	00048613          	mv	a2,s1
    1324:	00040693          	mv	a3,s0
    1328:	054000ef          	jal	ra,137c <__adddf3>
    132c:	00090613          	mv	a2,s2
    1330:	00098693          	mv	a3,s3
    1334:	000010ef          	jal	ra,2334 <__muldf3>
    1338:	fffb0b13          	addi	s6,s6,-1
    133c:	00050493          	mv	s1,a0
    1340:	00058413          	mv	s0,a1
    1344:	fc0b14e3          	bnez	s6,130c <mysqrt+0x70>
    1348:	239020ef          	jal	ra,3d80 <__truncdfsf2>
    134c:	01c12083          	lw	ra,28(sp)
    1350:	01812403          	lw	s0,24(sp)
    1354:	01412483          	lw	s1,20(sp)
    1358:	01012903          	lw	s2,16(sp)
    135c:	00c12983          	lw	s3,12(sp)
    1360:	00812a03          	lw	s4,8(sp)
    1364:	00412a83          	lw	s5,4(sp)
    1368:	00012b03          	lw	s6,0(sp)
    136c:	02010113          	addi	sp,sp,32
    1370:	00008067          	ret
    1374:	00000513          	li	a0,0
    1378:	fd5ff06f          	j	134c <mysqrt+0xb0>

0000137c <__adddf3>:
    137c:	00100737          	lui	a4,0x100
    1380:	fff70713          	addi	a4,a4,-1 # fffff <__heap_start+0xfafff>
    1384:	fe010113          	addi	sp,sp,-32
    1388:	00b777b3          	and	a5,a4,a1
    138c:	0146d893          	srli	a7,a3,0x14
    1390:	00d77733          	and	a4,a4,a3
    1394:	00812c23          	sw	s0,24(sp)
    1398:	00912a23          	sw	s1,20(sp)
    139c:	0145d413          	srli	s0,a1,0x14
    13a0:	01f5d493          	srli	s1,a1,0x1f
    13a4:	00379593          	slli	a1,a5,0x3
    13a8:	01d55793          	srli	a5,a0,0x1d
    13ac:	7ff47413          	andi	s0,s0,2047
    13b0:	00b7e7b3          	or	a5,a5,a1
    13b4:	7ff8f893          	andi	a7,a7,2047
    13b8:	00371593          	slli	a1,a4,0x3
    13bc:	00112e23          	sw	ra,28(sp)
    13c0:	01d65713          	srli	a4,a2,0x1d
    13c4:	01212823          	sw	s2,16(sp)
    13c8:	01312623          	sw	s3,12(sp)
    13cc:	01f6d693          	srli	a3,a3,0x1f
    13d0:	00b76733          	or	a4,a4,a1
    13d4:	00351513          	slli	a0,a0,0x3
    13d8:	00361613          	slli	a2,a2,0x3
    13dc:	411405b3          	sub	a1,s0,a7
    13e0:	30d49a63          	bne	s1,a3,16f4 <__adddf3+0x378>
    13e4:	16b05463          	blez	a1,154c <__adddf3+0x1d0>
    13e8:	0a089063          	bnez	a7,1488 <__adddf3+0x10c>
    13ec:	00c766b3          	or	a3,a4,a2
    13f0:	70068863          	beqz	a3,1b00 <__adddf3+0x784>
    13f4:	fff58693          	addi	a3,a1,-1
    13f8:	08069063          	bnez	a3,1478 <__adddf3+0xfc>
    13fc:	00c50633          	add	a2,a0,a2
    1400:	00a636b3          	sltu	a3,a2,a0
    1404:	00e78733          	add	a4,a5,a4
    1408:	00d707b3          	add	a5,a4,a3
    140c:	00800737          	lui	a4,0x800
    1410:	00e7f733          	and	a4,a5,a4
    1414:	00060513          	mv	a0,a2
    1418:	2a071863          	bnez	a4,16c8 <__adddf3+0x34c>
    141c:	00100413          	li	s0,1
    1420:	00757713          	andi	a4,a0,7
    1424:	02070063          	beqz	a4,1444 <__adddf3+0xc8>
    1428:	00f57713          	andi	a4,a0,15
    142c:	00400693          	li	a3,4
    1430:	00d70a63          	beq	a4,a3,1444 <__adddf3+0xc8>
    1434:	00450713          	addi	a4,a0,4
    1438:	00a736b3          	sltu	a3,a4,a0
    143c:	00d787b3          	add	a5,a5,a3
    1440:	00070513          	mv	a0,a4
    1444:	008005b7          	lui	a1,0x800
    1448:	00b7f5b3          	and	a1,a5,a1
    144c:	6c058c63          	beqz	a1,1b24 <__adddf3+0x7a8>
    1450:	00140413          	addi	s0,s0,1
    1454:	7ff00713          	li	a4,2047
    1458:	0ae40263          	beq	s0,a4,14fc <__adddf3+0x180>
    145c:	ff800737          	lui	a4,0xff800
    1460:	fff70713          	addi	a4,a4,-1 # ff7fffff <__heap_start+0xff7fafff>
    1464:	00e7f7b3          	and	a5,a5,a4
    1468:	00355513          	srli	a0,a0,0x3
    146c:	01d79593          	slli	a1,a5,0x1d
    1470:	00a5e5b3          	or	a1,a1,a0
    1474:	6240006f          	j	1a98 <__adddf3+0x71c>
    1478:	7ff00813          	li	a6,2047
    147c:	09059463          	bne	a1,a6,1504 <__adddf3+0x188>
    1480:	7ff00413          	li	s0,2047
    1484:	f9dff06f          	j	1420 <__adddf3+0xa4>
    1488:	7ff00693          	li	a3,2047
    148c:	f8d40ae3          	beq	s0,a3,1420 <__adddf3+0xa4>
    1490:	03800693          	li	a3,56
    1494:	06b6cc63          	blt	a3,a1,150c <__adddf3+0x190>
    1498:	008006b7          	lui	a3,0x800
    149c:	00d76733          	or	a4,a4,a3
    14a0:	00058693          	mv	a3,a1
    14a4:	01f00593          	li	a1,31
    14a8:	06d5c863          	blt	a1,a3,1518 <__adddf3+0x19c>
    14ac:	02000813          	li	a6,32
    14b0:	40d80833          	sub	a6,a6,a3
    14b4:	00d658b3          	srl	a7,a2,a3
    14b8:	010715b3          	sll	a1,a4,a6
    14bc:	01061833          	sll	a6,a2,a6
    14c0:	0115e5b3          	or	a1,a1,a7
    14c4:	01003833          	snez	a6,a6
    14c8:	0105e633          	or	a2,a1,a6
    14cc:	00d756b3          	srl	a3,a4,a3
    14d0:	00a60533          	add	a0,a2,a0
    14d4:	00f686b3          	add	a3,a3,a5
    14d8:	00c53633          	sltu	a2,a0,a2
    14dc:	00c687b3          	add	a5,a3,a2
    14e0:	00800737          	lui	a4,0x800
    14e4:	00e7f733          	and	a4,a5,a4
    14e8:	f2070ce3          	beqz	a4,1420 <__adddf3+0xa4>
    14ec:	00140413          	addi	s0,s0,1
    14f0:	7ff00713          	li	a4,2047
    14f4:	1ce41c63          	bne	s0,a4,16cc <__adddf3+0x350>
    14f8:	7ff00413          	li	s0,2047
    14fc:	00000793          	li	a5,0
    1500:	1900006f          	j	1690 <__adddf3+0x314>
    1504:	03800593          	li	a1,56
    1508:	f8d5dee3          	bge	a1,a3,14a4 <__adddf3+0x128>
    150c:	00000693          	li	a3,0
    1510:	00100613          	li	a2,1
    1514:	fbdff06f          	j	14d0 <__adddf3+0x154>
    1518:	fe068593          	addi	a1,a3,-32 # 7fffe0 <__heap_start+0x7fafe0>
    151c:	02000893          	li	a7,32
    1520:	00b755b3          	srl	a1,a4,a1
    1524:	00000813          	li	a6,0
    1528:	01168863          	beq	a3,a7,1538 <__adddf3+0x1bc>
    152c:	04000813          	li	a6,64
    1530:	40d80833          	sub	a6,a6,a3
    1534:	01071833          	sll	a6,a4,a6
    1538:	00c86833          	or	a6,a6,a2
    153c:	01003833          	snez	a6,a6
    1540:	0105e633          	or	a2,a1,a6
    1544:	00000693          	li	a3,0
    1548:	f89ff06f          	j	14d0 <__adddf3+0x154>
    154c:	0c058e63          	beqz	a1,1628 <__adddf3+0x2ac>
    1550:	408885b3          	sub	a1,a7,s0
    1554:	02041463          	bnez	s0,157c <__adddf3+0x200>
    1558:	00a7e6b3          	or	a3,a5,a0
    155c:	58068e63          	beqz	a3,1af8 <__adddf3+0x77c>
    1560:	fff58693          	addi	a3,a1,-1 # 7fffff <__heap_start+0x7fafff>
    1564:	e8068ce3          	beqz	a3,13fc <__adddf3+0x80>
    1568:	7ff00813          	li	a6,2047
    156c:	07059a63          	bne	a1,a6,15e0 <__adddf3+0x264>
    1570:	00070793          	mv	a5,a4
    1574:	00060513          	mv	a0,a2
    1578:	f09ff06f          	j	1480 <__adddf3+0x104>
    157c:	7ff00693          	li	a3,2047
    1580:	fed888e3          	beq	a7,a3,1570 <__adddf3+0x1f4>
    1584:	03800693          	li	a3,56
    1588:	06b6c063          	blt	a3,a1,15e8 <__adddf3+0x26c>
    158c:	008006b7          	lui	a3,0x800
    1590:	00d7e7b3          	or	a5,a5,a3
    1594:	00058693          	mv	a3,a1
    1598:	01f00593          	li	a1,31
    159c:	04d5cc63          	blt	a1,a3,15f4 <__adddf3+0x278>
    15a0:	02000813          	li	a6,32
    15a4:	40d80833          	sub	a6,a6,a3
    15a8:	010795b3          	sll	a1,a5,a6
    15ac:	00d55333          	srl	t1,a0,a3
    15b0:	01051833          	sll	a6,a0,a6
    15b4:	0065e5b3          	or	a1,a1,t1
    15b8:	01003833          	snez	a6,a6
    15bc:	0105e5b3          	or	a1,a1,a6
    15c0:	00d7d6b3          	srl	a3,a5,a3
    15c4:	00c58633          	add	a2,a1,a2
    15c8:	00e686b3          	add	a3,a3,a4
    15cc:	00b635b3          	sltu	a1,a2,a1
    15d0:	00060513          	mv	a0,a2
    15d4:	00b687b3          	add	a5,a3,a1
    15d8:	00088413          	mv	s0,a7
    15dc:	f05ff06f          	j	14e0 <__adddf3+0x164>
    15e0:	03800593          	li	a1,56
    15e4:	fad5dae3          	bge	a1,a3,1598 <__adddf3+0x21c>
    15e8:	00000693          	li	a3,0
    15ec:	00100593          	li	a1,1
    15f0:	fd5ff06f          	j	15c4 <__adddf3+0x248>
    15f4:	fe068593          	addi	a1,a3,-32 # 7fffe0 <__heap_start+0x7fafe0>
    15f8:	02000313          	li	t1,32
    15fc:	00b7d5b3          	srl	a1,a5,a1
    1600:	00000813          	li	a6,0
    1604:	00668863          	beq	a3,t1,1614 <__adddf3+0x298>
    1608:	04000813          	li	a6,64
    160c:	40d80833          	sub	a6,a6,a3
    1610:	01079833          	sll	a6,a5,a6
    1614:	00a86833          	or	a6,a6,a0
    1618:	01003833          	snez	a6,a6
    161c:	0105e5b3          	or	a1,a1,a6
    1620:	00000693          	li	a3,0
    1624:	fa1ff06f          	j	15c4 <__adddf3+0x248>
    1628:	00140693          	addi	a3,s0,1
    162c:	7fe6f593          	andi	a1,a3,2046
    1630:	06059463          	bnez	a1,1698 <__adddf3+0x31c>
    1634:	00a7e6b3          	or	a3,a5,a0
    1638:	04041063          	bnez	s0,1678 <__adddf3+0x2fc>
    163c:	4c068663          	beqz	a3,1b08 <__adddf3+0x78c>
    1640:	00c766b3          	or	a3,a4,a2
    1644:	dc068ee3          	beqz	a3,1420 <__adddf3+0xa4>
    1648:	00c50633          	add	a2,a0,a2
    164c:	00a636b3          	sltu	a3,a2,a0
    1650:	00e78733          	add	a4,a5,a4
    1654:	00d707b3          	add	a5,a4,a3
    1658:	00800737          	lui	a4,0x800
    165c:	00e7f733          	and	a4,a5,a4
    1660:	00060513          	mv	a0,a2
    1664:	da070ee3          	beqz	a4,1420 <__adddf3+0xa4>
    1668:	ff800737          	lui	a4,0xff800
    166c:	fff70713          	addi	a4,a4,-1 # ff7fffff <__heap_start+0xff7fafff>
    1670:	00e7f7b3          	and	a5,a5,a4
    1674:	da9ff06f          	j	141c <__adddf3+0xa0>
    1678:	ee068ce3          	beqz	a3,1570 <__adddf3+0x1f4>
    167c:	00c76633          	or	a2,a4,a2
    1680:	e00600e3          	beqz	a2,1480 <__adddf3+0x104>
    1684:	00000493          	li	s1,0
    1688:	7ff00413          	li	s0,2047
    168c:	000807b7          	lui	a5,0x80
    1690:	00000593          	li	a1,0
    1694:	4080006f          	j	1a9c <__adddf3+0x720>
    1698:	7ff00593          	li	a1,2047
    169c:	e4b68ee3          	beq	a3,a1,14f8 <__adddf3+0x17c>
    16a0:	00c50633          	add	a2,a0,a2
    16a4:	00a63533          	sltu	a0,a2,a0
    16a8:	00e78733          	add	a4,a5,a4
    16ac:	00a70733          	add	a4,a4,a0
    16b0:	01f71513          	slli	a0,a4,0x1f
    16b4:	00165613          	srli	a2,a2,0x1
    16b8:	00c56533          	or	a0,a0,a2
    16bc:	00175793          	srli	a5,a4,0x1
    16c0:	00068413          	mv	s0,a3
    16c4:	d5dff06f          	j	1420 <__adddf3+0xa4>
    16c8:	00200413          	li	s0,2
    16cc:	ff800737          	lui	a4,0xff800
    16d0:	fff70713          	addi	a4,a4,-1 # ff7fffff <__heap_start+0xff7fafff>
    16d4:	00e7f7b3          	and	a5,a5,a4
    16d8:	00155713          	srli	a4,a0,0x1
    16dc:	00157513          	andi	a0,a0,1
    16e0:	00a76733          	or	a4,a4,a0
    16e4:	01f79513          	slli	a0,a5,0x1f
    16e8:	00e56533          	or	a0,a0,a4
    16ec:	0017d793          	srli	a5,a5,0x1
    16f0:	d31ff06f          	j	1420 <__adddf3+0xa4>
    16f4:	0eb05e63          	blez	a1,17f0 <__adddf3+0x474>
    16f8:	04089663          	bnez	a7,1744 <__adddf3+0x3c8>
    16fc:	00c766b3          	or	a3,a4,a2
    1700:	40068063          	beqz	a3,1b00 <__adddf3+0x784>
    1704:	fff58693          	addi	a3,a1,-1
    1708:	02069063          	bnez	a3,1728 <__adddf3+0x3ac>
    170c:	40c50633          	sub	a2,a0,a2
    1710:	00c536b3          	sltu	a3,a0,a2
    1714:	40e78733          	sub	a4,a5,a4
    1718:	00060513          	mv	a0,a2
    171c:	40d707b3          	sub	a5,a4,a3
    1720:	00100413          	li	s0,1
    1724:	07c0006f          	j	17a0 <__adddf3+0x424>
    1728:	7ff00813          	li	a6,2047
    172c:	d5058ae3          	beq	a1,a6,1480 <__adddf3+0x104>
    1730:	03800593          	li	a1,56
    1734:	02d5d663          	bge	a1,a3,1760 <__adddf3+0x3e4>
    1738:	00000693          	li	a3,0
    173c:	00100613          	li	a2,1
    1740:	04c0006f          	j	178c <__adddf3+0x410>
    1744:	7ff00693          	li	a3,2047
    1748:	ccd40ce3          	beq	s0,a3,1420 <__adddf3+0xa4>
    174c:	03800693          	li	a3,56
    1750:	feb6c4e3          	blt	a3,a1,1738 <__adddf3+0x3bc>
    1754:	008006b7          	lui	a3,0x800
    1758:	00d76733          	or	a4,a4,a3
    175c:	00058693          	mv	a3,a1
    1760:	01f00593          	li	a1,31
    1764:	04d5cc63          	blt	a1,a3,17bc <__adddf3+0x440>
    1768:	02000813          	li	a6,32
    176c:	40d80833          	sub	a6,a6,a3
    1770:	00d658b3          	srl	a7,a2,a3
    1774:	010715b3          	sll	a1,a4,a6
    1778:	01061833          	sll	a6,a2,a6
    177c:	0115e5b3          	or	a1,a1,a7
    1780:	01003833          	snez	a6,a6
    1784:	0105e633          	or	a2,a1,a6
    1788:	00d756b3          	srl	a3,a4,a3
    178c:	40c50633          	sub	a2,a0,a2
    1790:	00c53733          	sltu	a4,a0,a2
    1794:	40d786b3          	sub	a3,a5,a3
    1798:	00060513          	mv	a0,a2
    179c:	40e687b3          	sub	a5,a3,a4
    17a0:	00800737          	lui	a4,0x800
    17a4:	00e7f6b3          	and	a3,a5,a4
    17a8:	c6068ce3          	beqz	a3,1420 <__adddf3+0xa4>
    17ac:	fff70713          	addi	a4,a4,-1 # 7fffff <__heap_start+0x7fafff>
    17b0:	00e7f9b3          	and	s3,a5,a4
    17b4:	00050913          	mv	s2,a0
    17b8:	1fc0006f          	j	19b4 <__adddf3+0x638>
    17bc:	fe068593          	addi	a1,a3,-32 # 7fffe0 <__heap_start+0x7fafe0>
    17c0:	02000893          	li	a7,32
    17c4:	00b755b3          	srl	a1,a4,a1
    17c8:	00000813          	li	a6,0
    17cc:	01168863          	beq	a3,a7,17dc <__adddf3+0x460>
    17d0:	04000813          	li	a6,64
    17d4:	40d80833          	sub	a6,a6,a3
    17d8:	01071833          	sll	a6,a4,a6
    17dc:	00c86833          	or	a6,a6,a2
    17e0:	01003833          	snez	a6,a6
    17e4:	0105e633          	or	a2,a1,a6
    17e8:	00000693          	li	a3,0
    17ec:	fa1ff06f          	j	178c <__adddf3+0x410>
    17f0:	0e058c63          	beqz	a1,18e8 <__adddf3+0x56c>
    17f4:	40888833          	sub	a6,a7,s0
    17f8:	04041263          	bnez	s0,183c <__adddf3+0x4c0>
    17fc:	00a7e5b3          	or	a1,a5,a0
    1800:	30058a63          	beqz	a1,1b14 <__adddf3+0x798>
    1804:	fff80593          	addi	a1,a6,-1
    1808:	00059e63          	bnez	a1,1824 <__adddf3+0x4a8>
    180c:	40a60533          	sub	a0,a2,a0
    1810:	40f70733          	sub	a4,a4,a5
    1814:	00a63633          	sltu	a2,a2,a0
    1818:	40c707b3          	sub	a5,a4,a2
    181c:	00068493          	mv	s1,a3
    1820:	f01ff06f          	j	1720 <__adddf3+0x3a4>
    1824:	7ff00313          	li	t1,2047
    1828:	06681c63          	bne	a6,t1,18a0 <__adddf3+0x524>
    182c:	00070793          	mv	a5,a4
    1830:	00060513          	mv	a0,a2
    1834:	7ff00413          	li	s0,2047
    1838:	0d80006f          	j	1910 <__adddf3+0x594>
    183c:	7ff00593          	li	a1,2047
    1840:	feb886e3          	beq	a7,a1,182c <__adddf3+0x4b0>
    1844:	03800593          	li	a1,56
    1848:	0705c063          	blt	a1,a6,18a8 <__adddf3+0x52c>
    184c:	008005b7          	lui	a1,0x800
    1850:	00b7e7b3          	or	a5,a5,a1
    1854:	00080593          	mv	a1,a6
    1858:	01f00813          	li	a6,31
    185c:	04b84c63          	blt	a6,a1,18b4 <__adddf3+0x538>
    1860:	02000313          	li	t1,32
    1864:	40b30333          	sub	t1,t1,a1
    1868:	00b55e33          	srl	t3,a0,a1
    186c:	00679833          	sll	a6,a5,t1
    1870:	00651333          	sll	t1,a0,t1
    1874:	01c86833          	or	a6,a6,t3
    1878:	00603333          	snez	t1,t1
    187c:	00686533          	or	a0,a6,t1
    1880:	00b7d5b3          	srl	a1,a5,a1
    1884:	40a60533          	sub	a0,a2,a0
    1888:	40b705b3          	sub	a1,a4,a1
    188c:	00a63633          	sltu	a2,a2,a0
    1890:	40c587b3          	sub	a5,a1,a2
    1894:	00088413          	mv	s0,a7
    1898:	00068493          	mv	s1,a3
    189c:	f05ff06f          	j	17a0 <__adddf3+0x424>
    18a0:	03800813          	li	a6,56
    18a4:	fab85ae3          	bge	a6,a1,1858 <__adddf3+0x4dc>
    18a8:	00000593          	li	a1,0
    18ac:	00100513          	li	a0,1
    18b0:	fd5ff06f          	j	1884 <__adddf3+0x508>
    18b4:	fe058813          	addi	a6,a1,-32 # 7fffe0 <__heap_start+0x7fafe0>
    18b8:	02000e13          	li	t3,32
    18bc:	0107d833          	srl	a6,a5,a6
    18c0:	00000313          	li	t1,0
    18c4:	01c58863          	beq	a1,t3,18d4 <__adddf3+0x558>
    18c8:	04000313          	li	t1,64
    18cc:	40b30333          	sub	t1,t1,a1
    18d0:	00679333          	sll	t1,a5,t1
    18d4:	00a36333          	or	t1,t1,a0
    18d8:	00603333          	snez	t1,t1
    18dc:	00686533          	or	a0,a6,t1
    18e0:	00000593          	li	a1,0
    18e4:	fa1ff06f          	j	1884 <__adddf3+0x508>
    18e8:	00140593          	addi	a1,s0,1
    18ec:	7fe5f593          	andi	a1,a1,2046
    18f0:	08059863          	bnez	a1,1980 <__adddf3+0x604>
    18f4:	00a7e833          	or	a6,a5,a0
    18f8:	00c765b3          	or	a1,a4,a2
    18fc:	06041263          	bnez	s0,1960 <__adddf3+0x5e4>
    1900:	00081c63          	bnez	a6,1918 <__adddf3+0x59c>
    1904:	10058e63          	beqz	a1,1a20 <__adddf3+0x6a4>
    1908:	00070793          	mv	a5,a4
    190c:	00060513          	mv	a0,a2
    1910:	00068493          	mv	s1,a3
    1914:	b0dff06f          	j	1420 <__adddf3+0xa4>
    1918:	b00584e3          	beqz	a1,1420 <__adddf3+0xa4>
    191c:	40c508b3          	sub	a7,a0,a2
    1920:	011535b3          	sltu	a1,a0,a7
    1924:	40e78833          	sub	a6,a5,a4
    1928:	40b80833          	sub	a6,a6,a1
    192c:	008005b7          	lui	a1,0x800
    1930:	00b875b3          	and	a1,a6,a1
    1934:	00058c63          	beqz	a1,194c <__adddf3+0x5d0>
    1938:	40a60533          	sub	a0,a2,a0
    193c:	40f70733          	sub	a4,a4,a5
    1940:	00a63633          	sltu	a2,a2,a0
    1944:	40c707b3          	sub	a5,a4,a2
    1948:	fc9ff06f          	j	1910 <__adddf3+0x594>
    194c:	0108e5b3          	or	a1,a7,a6
    1950:	0c058863          	beqz	a1,1a20 <__adddf3+0x6a4>
    1954:	00080793          	mv	a5,a6
    1958:	00088513          	mv	a0,a7
    195c:	ac5ff06f          	j	1420 <__adddf3+0xa4>
    1960:	00081c63          	bnez	a6,1978 <__adddf3+0x5fc>
    1964:	1e058663          	beqz	a1,1b50 <__adddf3+0x7d4>
    1968:	00070793          	mv	a5,a4
    196c:	00060513          	mv	a0,a2
    1970:	00068493          	mv	s1,a3
    1974:	b0dff06f          	j	1480 <__adddf3+0x104>
    1978:	b00584e3          	beqz	a1,1480 <__adddf3+0x104>
    197c:	d09ff06f          	j	1684 <__adddf3+0x308>
    1980:	40c505b3          	sub	a1,a0,a2
    1984:	00b53833          	sltu	a6,a0,a1
    1988:	40e789b3          	sub	s3,a5,a4
    198c:	410989b3          	sub	s3,s3,a6
    1990:	00800837          	lui	a6,0x800
    1994:	0109f833          	and	a6,s3,a6
    1998:	00058913          	mv	s2,a1
    199c:	06080c63          	beqz	a6,1a14 <__adddf3+0x698>
    19a0:	40a60933          	sub	s2,a2,a0
    19a4:	40f70733          	sub	a4,a4,a5
    19a8:	01263633          	sltu	a2,a2,s2
    19ac:	40c709b3          	sub	s3,a4,a2
    19b0:	00068493          	mv	s1,a3
    19b4:	06098a63          	beqz	s3,1a28 <__adddf3+0x6ac>
    19b8:	00098513          	mv	a0,s3
    19bc:	62c020ef          	jal	ra,3fe8 <__clzsi2>
    19c0:	ff850793          	addi	a5,a0,-8
    19c4:	02000693          	li	a3,32
    19c8:	40f686b3          	sub	a3,a3,a5
    19cc:	00f99733          	sll	a4,s3,a5
    19d0:	00d956b3          	srl	a3,s2,a3
    19d4:	00e6e6b3          	or	a3,a3,a4
    19d8:	00f919b3          	sll	s3,s2,a5
    19dc:	1087c263          	blt	a5,s0,1ae0 <__adddf3+0x764>
    19e0:	408787b3          	sub	a5,a5,s0
    19e4:	00178793          	addi	a5,a5,1 # 80001 <__heap_start+0x7b001>
    19e8:	02000713          	li	a4,32
    19ec:	40f70733          	sub	a4,a4,a5
    19f0:	00e69533          	sll	a0,a3,a4
    19f4:	00f9d633          	srl	a2,s3,a5
    19f8:	00e99733          	sll	a4,s3,a4
    19fc:	00c56533          	or	a0,a0,a2
    1a00:	00e03733          	snez	a4,a4
    1a04:	00e56533          	or	a0,a0,a4
    1a08:	00f6d7b3          	srl	a5,a3,a5
    1a0c:	00000413          	li	s0,0
    1a10:	a11ff06f          	j	1420 <__adddf3+0xa4>
    1a14:	0135e5b3          	or	a1,a1,s3
    1a18:	f8059ee3          	bnez	a1,19b4 <__adddf3+0x638>
    1a1c:	00000413          	li	s0,0
    1a20:	00000793          	li	a5,0
    1a24:	1240006f          	j	1b48 <__adddf3+0x7cc>
    1a28:	00090513          	mv	a0,s2
    1a2c:	5bc020ef          	jal	ra,3fe8 <__clzsi2>
    1a30:	01850793          	addi	a5,a0,24
    1a34:	01f00713          	li	a4,31
    1a38:	f8f756e3          	bge	a4,a5,19c4 <__adddf3+0x648>
    1a3c:	ff850513          	addi	a0,a0,-8
    1a40:	00a916b3          	sll	a3,s2,a0
    1a44:	0487c063          	blt	a5,s0,1a84 <__adddf3+0x708>
    1a48:	40878533          	sub	a0,a5,s0
    1a4c:	00150793          	addi	a5,a0,1
    1a50:	f8f75ce3          	bge	a4,a5,19e8 <__adddf3+0x66c>
    1a54:	fe150513          	addi	a0,a0,-31
    1a58:	02000613          	li	a2,32
    1a5c:	00a6d733          	srl	a4,a3,a0
    1a60:	00000513          	li	a0,0
    1a64:	00c78863          	beq	a5,a2,1a74 <__adddf3+0x6f8>
    1a68:	04000513          	li	a0,64
    1a6c:	40f50533          	sub	a0,a0,a5
    1a70:	00a69533          	sll	a0,a3,a0
    1a74:	00a03533          	snez	a0,a0
    1a78:	00e56533          	or	a0,a0,a4
    1a7c:	00000793          	li	a5,0
    1a80:	f8dff06f          	j	1a0c <__adddf3+0x690>
    1a84:	40f40433          	sub	s0,s0,a5
    1a88:	ff8007b7          	lui	a5,0xff800
    1a8c:	fff78793          	addi	a5,a5,-1 # ff7fffff <__heap_start+0xff7fafff>
    1a90:	00f6f7b3          	and	a5,a3,a5
    1a94:	01d79593          	slli	a1,a5,0x1d
    1a98:	0037d793          	srli	a5,a5,0x3
    1a9c:	01441413          	slli	s0,s0,0x14
    1aa0:	7ff00737          	lui	a4,0x7ff00
    1aa4:	00c79793          	slli	a5,a5,0xc
    1aa8:	00c7d793          	srli	a5,a5,0xc
    1aac:	00e47433          	and	s0,s0,a4
    1ab0:	00f46433          	or	s0,s0,a5
    1ab4:	01f49493          	slli	s1,s1,0x1f
    1ab8:	009467b3          	or	a5,s0,s1
    1abc:	01c12083          	lw	ra,28(sp)
    1ac0:	01812403          	lw	s0,24(sp)
    1ac4:	01412483          	lw	s1,20(sp)
    1ac8:	01012903          	lw	s2,16(sp)
    1acc:	00c12983          	lw	s3,12(sp)
    1ad0:	00058513          	mv	a0,a1
    1ad4:	00078593          	mv	a1,a5
    1ad8:	02010113          	addi	sp,sp,32
    1adc:	00008067          	ret
    1ae0:	40f40433          	sub	s0,s0,a5
    1ae4:	ff8007b7          	lui	a5,0xff800
    1ae8:	fff78793          	addi	a5,a5,-1 # ff7fffff <__heap_start+0xff7fafff>
    1aec:	00f6f7b3          	and	a5,a3,a5
    1af0:	00098513          	mv	a0,s3
    1af4:	92dff06f          	j	1420 <__adddf3+0xa4>
    1af8:	00070793          	mv	a5,a4
    1afc:	00060513          	mv	a0,a2
    1b00:	00058413          	mv	s0,a1
    1b04:	91dff06f          	j	1420 <__adddf3+0xa4>
    1b08:	00070793          	mv	a5,a4
    1b0c:	00060513          	mv	a0,a2
    1b10:	911ff06f          	j	1420 <__adddf3+0xa4>
    1b14:	00070793          	mv	a5,a4
    1b18:	00060513          	mv	a0,a2
    1b1c:	00080413          	mv	s0,a6
    1b20:	df1ff06f          	j	1910 <__adddf3+0x594>
    1b24:	01d79713          	slli	a4,a5,0x1d
    1b28:	00355513          	srli	a0,a0,0x3
    1b2c:	7ff00693          	li	a3,2047
    1b30:	00a76733          	or	a4,a4,a0
    1b34:	0037d793          	srli	a5,a5,0x3
    1b38:	02d41463          	bne	s0,a3,1b60 <__adddf3+0x7e4>
    1b3c:	00f76733          	or	a4,a4,a5
    1b40:	000807b7          	lui	a5,0x80
    1b44:	9a070ae3          	beqz	a4,14f8 <__adddf3+0x17c>
    1b48:	00000493          	li	s1,0
    1b4c:	f51ff06f          	j	1a9c <__adddf3+0x720>
    1b50:	00000493          	li	s1,0
    1b54:	7ff00413          	li	s0,2047
    1b58:	000807b7          	lui	a5,0x80
    1b5c:	f41ff06f          	j	1a9c <__adddf3+0x720>
    1b60:	00070593          	mv	a1,a4
    1b64:	f39ff06f          	j	1a9c <__adddf3+0x720>

00001b68 <__divdf3>:
    1b68:	fb010113          	addi	sp,sp,-80
    1b6c:	05212023          	sw	s2,64(sp)
    1b70:	0145d913          	srli	s2,a1,0x14
    1b74:	04812423          	sw	s0,72(sp)
    1b78:	03312e23          	sw	s3,60(sp)
    1b7c:	03412c23          	sw	s4,56(sp)
    1b80:	03512a23          	sw	s5,52(sp)
    1b84:	03812423          	sw	s8,40(sp)
    1b88:	00c59413          	slli	s0,a1,0xc
    1b8c:	04112623          	sw	ra,76(sp)
    1b90:	04912223          	sw	s1,68(sp)
    1b94:	03612823          	sw	s6,48(sp)
    1b98:	03712623          	sw	s7,44(sp)
    1b9c:	03912223          	sw	s9,36(sp)
    1ba0:	03a12023          	sw	s10,32(sp)
    1ba4:	01b12e23          	sw	s11,28(sp)
    1ba8:	7ff97913          	andi	s2,s2,2047
    1bac:	00050993          	mv	s3,a0
    1bb0:	00060c13          	mv	s8,a2
    1bb4:	00068a13          	mv	s4,a3
    1bb8:	00c45413          	srli	s0,s0,0xc
    1bbc:	01f5da93          	srli	s5,a1,0x1f
    1bc0:	0a090063          	beqz	s2,1c60 <__divdf3+0xf8>
    1bc4:	7ff00793          	li	a5,2047
    1bc8:	10f90063          	beq	s2,a5,1cc8 <__divdf3+0x160>
    1bcc:	01d55b13          	srli	s6,a0,0x1d
    1bd0:	00341413          	slli	s0,s0,0x3
    1bd4:	008b6b33          	or	s6,s6,s0
    1bd8:	008007b7          	lui	a5,0x800
    1bdc:	00fb6b33          	or	s6,s6,a5
    1be0:	00351493          	slli	s1,a0,0x3
    1be4:	c0190913          	addi	s2,s2,-1023
    1be8:	00000b93          	li	s7,0
    1bec:	014a5713          	srli	a4,s4,0x14
    1bf0:	00ca1413          	slli	s0,s4,0xc
    1bf4:	7ff77713          	andi	a4,a4,2047
    1bf8:	00c45413          	srli	s0,s0,0xc
    1bfc:	01fa5a13          	srli	s4,s4,0x1f
    1c00:	10070263          	beqz	a4,1d04 <__divdf3+0x19c>
    1c04:	7ff00793          	li	a5,2047
    1c08:	16f70663          	beq	a4,a5,1d74 <__divdf3+0x20c>
    1c0c:	00341413          	slli	s0,s0,0x3
    1c10:	01dc5793          	srli	a5,s8,0x1d
    1c14:	0087e7b3          	or	a5,a5,s0
    1c18:	00800437          	lui	s0,0x800
    1c1c:	0087e433          	or	s0,a5,s0
    1c20:	003c1693          	slli	a3,s8,0x3
    1c24:	c0170713          	addi	a4,a4,-1023 # 7feffc01 <__heap_start+0x7fefac01>
    1c28:	00000613          	li	a2,0
    1c2c:	002b9793          	slli	a5,s7,0x2
    1c30:	00c7e7b3          	or	a5,a5,a2
    1c34:	40e90933          	sub	s2,s2,a4
    1c38:	fff78793          	addi	a5,a5,-1 # 7fffff <__heap_start+0x7fafff>
    1c3c:	00e00713          	li	a4,14
    1c40:	014ac9b3          	xor	s3,s5,s4
    1c44:	18f76c63          	bltu	a4,a5,1ddc <__divdf3+0x274>
    1c48:	00004737          	lui	a4,0x4
    1c4c:	00279793          	slli	a5,a5,0x2
    1c50:	6ac70713          	addi	a4,a4,1708 # 46ac <main+0x678>
    1c54:	00e787b3          	add	a5,a5,a4
    1c58:	0007a783          	lw	a5,0(a5)
    1c5c:	00078067          	jr	a5
    1c60:	00a46b33          	or	s6,s0,a0
    1c64:	080b0063          	beqz	s6,1ce4 <__divdf3+0x17c>
    1c68:	02040e63          	beqz	s0,1ca4 <__divdf3+0x13c>
    1c6c:	00040513          	mv	a0,s0
    1c70:	378020ef          	jal	ra,3fe8 <__clzsi2>
    1c74:	ff550793          	addi	a5,a0,-11
    1c78:	01d00b13          	li	s6,29
    1c7c:	ff850713          	addi	a4,a0,-8
    1c80:	40fb0b33          	sub	s6,s6,a5
    1c84:	00e41433          	sll	s0,s0,a4
    1c88:	0169db33          	srl	s6,s3,s6
    1c8c:	008b6b33          	or	s6,s6,s0
    1c90:	00e99433          	sll	s0,s3,a4
    1c94:	c0d00913          	li	s2,-1011
    1c98:	40a90933          	sub	s2,s2,a0
    1c9c:	00040493          	mv	s1,s0
    1ca0:	f49ff06f          	j	1be8 <__divdf3+0x80>
    1ca4:	344020ef          	jal	ra,3fe8 <__clzsi2>
    1ca8:	00050b13          	mv	s6,a0
    1cac:	015b0793          	addi	a5,s6,21
    1cb0:	01c00713          	li	a4,28
    1cb4:	02050513          	addi	a0,a0,32
    1cb8:	fcf750e3          	bge	a4,a5,1c78 <__divdf3+0x110>
    1cbc:	ff8b0b13          	addi	s6,s6,-8
    1cc0:	01699b33          	sll	s6,s3,s6
    1cc4:	fd1ff06f          	j	1c94 <__divdf3+0x12c>
    1cc8:	00a46b33          	or	s6,s0,a0
    1ccc:	020b0463          	beqz	s6,1cf4 <__divdf3+0x18c>
    1cd0:	00050493          	mv	s1,a0
    1cd4:	00040b13          	mv	s6,s0
    1cd8:	7ff00913          	li	s2,2047
    1cdc:	00300b93          	li	s7,3
    1ce0:	f0dff06f          	j	1bec <__divdf3+0x84>
    1ce4:	00000493          	li	s1,0
    1ce8:	00000913          	li	s2,0
    1cec:	00100b93          	li	s7,1
    1cf0:	efdff06f          	j	1bec <__divdf3+0x84>
    1cf4:	00000493          	li	s1,0
    1cf8:	7ff00913          	li	s2,2047
    1cfc:	00200b93          	li	s7,2
    1d00:	eedff06f          	j	1bec <__divdf3+0x84>
    1d04:	018466b3          	or	a3,s0,s8
    1d08:	08068263          	beqz	a3,1d8c <__divdf3+0x224>
    1d0c:	04040063          	beqz	s0,1d4c <__divdf3+0x1e4>
    1d10:	00040513          	mv	a0,s0
    1d14:	2d4020ef          	jal	ra,3fe8 <__clzsi2>
    1d18:	ff550713          	addi	a4,a0,-11
    1d1c:	01d00793          	li	a5,29
    1d20:	ff850693          	addi	a3,a0,-8
    1d24:	40e787b3          	sub	a5,a5,a4
    1d28:	00d41433          	sll	s0,s0,a3
    1d2c:	00fc57b3          	srl	a5,s8,a5
    1d30:	0087e7b3          	or	a5,a5,s0
    1d34:	00dc1433          	sll	s0,s8,a3
    1d38:	c0d00713          	li	a4,-1011
    1d3c:	00040693          	mv	a3,s0
    1d40:	40a70733          	sub	a4,a4,a0
    1d44:	00078413          	mv	s0,a5
    1d48:	ee1ff06f          	j	1c28 <__divdf3+0xc0>
    1d4c:	000c0513          	mv	a0,s8
    1d50:	298020ef          	jal	ra,3fe8 <__clzsi2>
    1d54:	00050793          	mv	a5,a0
    1d58:	01578713          	addi	a4,a5,21
    1d5c:	01c00693          	li	a3,28
    1d60:	02050513          	addi	a0,a0,32
    1d64:	fae6dce3          	bge	a3,a4,1d1c <__divdf3+0x1b4>
    1d68:	ff878793          	addi	a5,a5,-8
    1d6c:	00fc17b3          	sll	a5,s8,a5
    1d70:	fc9ff06f          	j	1d38 <__divdf3+0x1d0>
    1d74:	018466b3          	or	a3,s0,s8
    1d78:	02068263          	beqz	a3,1d9c <__divdf3+0x234>
    1d7c:	000c0693          	mv	a3,s8
    1d80:	7ff00713          	li	a4,2047
    1d84:	00300613          	li	a2,3
    1d88:	ea5ff06f          	j	1c2c <__divdf3+0xc4>
    1d8c:	00000413          	li	s0,0
    1d90:	00000713          	li	a4,0
    1d94:	00100613          	li	a2,1
    1d98:	e95ff06f          	j	1c2c <__divdf3+0xc4>
    1d9c:	00000413          	li	s0,0
    1da0:	7ff00713          	li	a4,2047
    1da4:	00200613          	li	a2,2
    1da8:	e85ff06f          	j	1c2c <__divdf3+0xc4>
    1dac:	000a8993          	mv	s3,s5
    1db0:	000b0413          	mv	s0,s6
    1db4:	00048693          	mv	a3,s1
    1db8:	00200793          	li	a5,2
    1dbc:	54fb8c63          	beq	s7,a5,2314 <__divdf3+0x7ac>
    1dc0:	00300793          	li	a5,3
    1dc4:	52fb8e63          	beq	s7,a5,2300 <__divdf3+0x798>
    1dc8:	00100793          	li	a5,1
    1dcc:	3afb9463          	bne	s7,a5,2174 <__divdf3+0x60c>
    1dd0:	00000413          	li	s0,0
    1dd4:	00000713          	li	a4,0
    1dd8:	4ec0006f          	j	22c4 <__divdf3+0x75c>
    1ddc:	01646663          	bltu	s0,s6,1de8 <__divdf3+0x280>
    1de0:	448b1863          	bne	s6,s0,2230 <__divdf3+0x6c8>
    1de4:	44d4e663          	bltu	s1,a3,2230 <__divdf3+0x6c8>
    1de8:	01fb1713          	slli	a4,s6,0x1f
    1dec:	0014d793          	srli	a5,s1,0x1
    1df0:	01f49d13          	slli	s10,s1,0x1f
    1df4:	001b5b13          	srli	s6,s6,0x1
    1df8:	00f764b3          	or	s1,a4,a5
    1dfc:	0186dc13          	srli	s8,a3,0x18
    1e00:	00841413          	slli	s0,s0,0x8
    1e04:	01045793          	srli	a5,s0,0x10
    1e08:	008c6c33          	or	s8,s8,s0
    1e0c:	00078593          	mv	a1,a5
    1e10:	000b0513          	mv	a0,s6
    1e14:	010c1a93          	slli	s5,s8,0x10
    1e18:	00f12623          	sw	a5,12(sp)
    1e1c:	00869c93          	slli	s9,a3,0x8
    1e20:	010ada93          	srli	s5,s5,0x10
    1e24:	118020ef          	jal	ra,3f3c <__hidden___udivsi3>
    1e28:	00050593          	mv	a1,a0
    1e2c:	00050b93          	mv	s7,a0
    1e30:	000a8513          	mv	a0,s5
    1e34:	0dc020ef          	jal	ra,3f10 <__mulsi3>
    1e38:	00c12583          	lw	a1,12(sp)
    1e3c:	00050413          	mv	s0,a0
    1e40:	000b0513          	mv	a0,s6
    1e44:	140020ef          	jal	ra,3f84 <__umodsi3>
    1e48:	01051513          	slli	a0,a0,0x10
    1e4c:	0104d793          	srli	a5,s1,0x10
    1e50:	00a7e7b3          	or	a5,a5,a0
    1e54:	000b8b13          	mv	s6,s7
    1e58:	0087fe63          	bgeu	a5,s0,1e74 <__divdf3+0x30c>
    1e5c:	00fc07b3          	add	a5,s8,a5
    1e60:	fffb8b13          	addi	s6,s7,-1
    1e64:	0187e863          	bltu	a5,s8,1e74 <__divdf3+0x30c>
    1e68:	0087f663          	bgeu	a5,s0,1e74 <__divdf3+0x30c>
    1e6c:	ffeb8b13          	addi	s6,s7,-2
    1e70:	018787b3          	add	a5,a5,s8
    1e74:	00c12583          	lw	a1,12(sp)
    1e78:	40878433          	sub	s0,a5,s0
    1e7c:	00040513          	mv	a0,s0
    1e80:	0bc020ef          	jal	ra,3f3c <__hidden___udivsi3>
    1e84:	00050593          	mv	a1,a0
    1e88:	00050d93          	mv	s11,a0
    1e8c:	000a8513          	mv	a0,s5
    1e90:	080020ef          	jal	ra,3f10 <__mulsi3>
    1e94:	00c12583          	lw	a1,12(sp)
    1e98:	00050b93          	mv	s7,a0
    1e9c:	00040513          	mv	a0,s0
    1ea0:	0e4020ef          	jal	ra,3f84 <__umodsi3>
    1ea4:	01049793          	slli	a5,s1,0x10
    1ea8:	01051513          	slli	a0,a0,0x10
    1eac:	0107d793          	srli	a5,a5,0x10
    1eb0:	00a7e7b3          	or	a5,a5,a0
    1eb4:	000d8713          	mv	a4,s11
    1eb8:	0177fe63          	bgeu	a5,s7,1ed4 <__divdf3+0x36c>
    1ebc:	00fc07b3          	add	a5,s8,a5
    1ec0:	fffd8713          	addi	a4,s11,-1
    1ec4:	0187e863          	bltu	a5,s8,1ed4 <__divdf3+0x36c>
    1ec8:	0177f663          	bgeu	a5,s7,1ed4 <__divdf3+0x36c>
    1ecc:	ffed8713          	addi	a4,s11,-2
    1ed0:	018787b3          	add	a5,a5,s8
    1ed4:	010b1813          	slli	a6,s6,0x10
    1ed8:	00010eb7          	lui	t4,0x10
    1edc:	00e86833          	or	a6,a6,a4
    1ee0:	fffe8b13          	addi	s6,t4,-1 # ffff <__heap_start+0xafff>
    1ee4:	016878b3          	and	a7,a6,s6
    1ee8:	016cfb33          	and	s6,s9,s6
    1eec:	417787b3          	sub	a5,a5,s7
    1ef0:	01085713          	srli	a4,a6,0x10
    1ef4:	010cdb93          	srli	s7,s9,0x10
    1ef8:	00088513          	mv	a0,a7
    1efc:	000b0593          	mv	a1,s6
    1f00:	010020ef          	jal	ra,3f10 <__mulsi3>
    1f04:	00050313          	mv	t1,a0
    1f08:	000b8593          	mv	a1,s7
    1f0c:	00088513          	mv	a0,a7
    1f10:	000020ef          	jal	ra,3f10 <__mulsi3>
    1f14:	00050893          	mv	a7,a0
    1f18:	000b0593          	mv	a1,s6
    1f1c:	00070513          	mv	a0,a4
    1f20:	7f1010ef          	jal	ra,3f10 <__mulsi3>
    1f24:	00050e13          	mv	t3,a0
    1f28:	000b8593          	mv	a1,s7
    1f2c:	00070513          	mv	a0,a4
    1f30:	7e1010ef          	jal	ra,3f10 <__mulsi3>
    1f34:	01035713          	srli	a4,t1,0x10
    1f38:	01c888b3          	add	a7,a7,t3
    1f3c:	01170733          	add	a4,a4,a7
    1f40:	00050613          	mv	a2,a0
    1f44:	01c77463          	bgeu	a4,t3,1f4c <__divdf3+0x3e4>
    1f48:	01d50633          	add	a2,a0,t4
    1f4c:	01075693          	srli	a3,a4,0x10
    1f50:	00c686b3          	add	a3,a3,a2
    1f54:	00010637          	lui	a2,0x10
    1f58:	fff60613          	addi	a2,a2,-1 # ffff <__heap_start+0xafff>
    1f5c:	00c77733          	and	a4,a4,a2
    1f60:	01071713          	slli	a4,a4,0x10
    1f64:	00c37333          	and	t1,t1,a2
    1f68:	00670733          	add	a4,a4,t1
    1f6c:	00d7e863          	bltu	a5,a3,1f7c <__divdf3+0x414>
    1f70:	00080413          	mv	s0,a6
    1f74:	04d79863          	bne	a5,a3,1fc4 <__divdf3+0x45c>
    1f78:	04ed7663          	bgeu	s10,a4,1fc4 <__divdf3+0x45c>
    1f7c:	019d0633          	add	a2,s10,s9
    1f80:	01a635b3          	sltu	a1,a2,s10
    1f84:	01858533          	add	a0,a1,s8
    1f88:	00a787b3          	add	a5,a5,a0
    1f8c:	fff80413          	addi	s0,a6,-1 # 7fffff <__heap_start+0x7fafff>
    1f90:	00060d13          	mv	s10,a2
    1f94:	00fc6663          	bltu	s8,a5,1fa0 <__divdf3+0x438>
    1f98:	02fc1663          	bne	s8,a5,1fc4 <__divdf3+0x45c>
    1f9c:	02059463          	bnez	a1,1fc4 <__divdf3+0x45c>
    1fa0:	00d7e663          	bltu	a5,a3,1fac <__divdf3+0x444>
    1fa4:	02f69063          	bne	a3,a5,1fc4 <__divdf3+0x45c>
    1fa8:	00e67e63          	bgeu	a2,a4,1fc4 <__divdf3+0x45c>
    1fac:	00cc8633          	add	a2,s9,a2
    1fb0:	00060d13          	mv	s10,a2
    1fb4:	01963633          	sltu	a2,a2,s9
    1fb8:	01860633          	add	a2,a2,s8
    1fbc:	ffe80413          	addi	s0,a6,-2
    1fc0:	00c787b3          	add	a5,a5,a2
    1fc4:	40ed0db3          	sub	s11,s10,a4
    1fc8:	40d787b3          	sub	a5,a5,a3
    1fcc:	01bd3d33          	sltu	s10,s10,s11
    1fd0:	41a784b3          	sub	s1,a5,s10
    1fd4:	fff00693          	li	a3,-1
    1fd8:	189c0e63          	beq	s8,s1,2174 <__divdf3+0x60c>
    1fdc:	00c12583          	lw	a1,12(sp)
    1fe0:	00048513          	mv	a0,s1
    1fe4:	759010ef          	jal	ra,3f3c <__hidden___udivsi3>
    1fe8:	00050593          	mv	a1,a0
    1fec:	00050a13          	mv	s4,a0
    1ff0:	000a8513          	mv	a0,s5
    1ff4:	71d010ef          	jal	ra,3f10 <__mulsi3>
    1ff8:	00c12583          	lw	a1,12(sp)
    1ffc:	00050d13          	mv	s10,a0
    2000:	00048513          	mv	a0,s1
    2004:	781010ef          	jal	ra,3f84 <__umodsi3>
    2008:	01051513          	slli	a0,a0,0x10
    200c:	010dd693          	srli	a3,s11,0x10
    2010:	00a6e6b3          	or	a3,a3,a0
    2014:	000a0493          	mv	s1,s4
    2018:	01a6fe63          	bgeu	a3,s10,2034 <__divdf3+0x4cc>
    201c:	00dc06b3          	add	a3,s8,a3
    2020:	fffa0493          	addi	s1,s4,-1
    2024:	0186e863          	bltu	a3,s8,2034 <__divdf3+0x4cc>
    2028:	01a6f663          	bgeu	a3,s10,2034 <__divdf3+0x4cc>
    202c:	ffea0493          	addi	s1,s4,-2
    2030:	018686b3          	add	a3,a3,s8
    2034:	00c12583          	lw	a1,12(sp)
    2038:	41a68a33          	sub	s4,a3,s10
    203c:	000a0513          	mv	a0,s4
    2040:	6fd010ef          	jal	ra,3f3c <__hidden___udivsi3>
    2044:	00050593          	mv	a1,a0
    2048:	00050d13          	mv	s10,a0
    204c:	000a8513          	mv	a0,s5
    2050:	6c1010ef          	jal	ra,3f10 <__mulsi3>
    2054:	00c12583          	lw	a1,12(sp)
    2058:	00050a93          	mv	s5,a0
    205c:	000a0513          	mv	a0,s4
    2060:	725010ef          	jal	ra,3f84 <__umodsi3>
    2064:	010d9793          	slli	a5,s11,0x10
    2068:	01051513          	slli	a0,a0,0x10
    206c:	0107d793          	srli	a5,a5,0x10
    2070:	00a7e7b3          	or	a5,a5,a0
    2074:	000d0713          	mv	a4,s10
    2078:	0157fe63          	bgeu	a5,s5,2094 <__divdf3+0x52c>
    207c:	00fc07b3          	add	a5,s8,a5
    2080:	fffd0713          	addi	a4,s10,-1
    2084:	0187e863          	bltu	a5,s8,2094 <__divdf3+0x52c>
    2088:	0157f663          	bgeu	a5,s5,2094 <__divdf3+0x52c>
    208c:	ffed0713          	addi	a4,s10,-2
    2090:	018787b3          	add	a5,a5,s8
    2094:	01049813          	slli	a6,s1,0x10
    2098:	00e86833          	or	a6,a6,a4
    209c:	01081893          	slli	a7,a6,0x10
    20a0:	0108d893          	srli	a7,a7,0x10
    20a4:	415787b3          	sub	a5,a5,s5
    20a8:	01085713          	srli	a4,a6,0x10
    20ac:	00088513          	mv	a0,a7
    20b0:	000b0593          	mv	a1,s6
    20b4:	65d010ef          	jal	ra,3f10 <__mulsi3>
    20b8:	00050313          	mv	t1,a0
    20bc:	000b8593          	mv	a1,s7
    20c0:	00088513          	mv	a0,a7
    20c4:	64d010ef          	jal	ra,3f10 <__mulsi3>
    20c8:	00050893          	mv	a7,a0
    20cc:	000b0593          	mv	a1,s6
    20d0:	00070513          	mv	a0,a4
    20d4:	63d010ef          	jal	ra,3f10 <__mulsi3>
    20d8:	00050e13          	mv	t3,a0
    20dc:	000b8593          	mv	a1,s7
    20e0:	00070513          	mv	a0,a4
    20e4:	62d010ef          	jal	ra,3f10 <__mulsi3>
    20e8:	01035713          	srli	a4,t1,0x10
    20ec:	01c888b3          	add	a7,a7,t3
    20f0:	01170733          	add	a4,a4,a7
    20f4:	00050693          	mv	a3,a0
    20f8:	01c77663          	bgeu	a4,t3,2104 <__divdf3+0x59c>
    20fc:	00010637          	lui	a2,0x10
    2100:	00c506b3          	add	a3,a0,a2
    2104:	01075613          	srli	a2,a4,0x10
    2108:	00d60633          	add	a2,a2,a3
    210c:	000106b7          	lui	a3,0x10
    2110:	fff68693          	addi	a3,a3,-1 # ffff <__heap_start+0xafff>
    2114:	00d77733          	and	a4,a4,a3
    2118:	01071713          	slli	a4,a4,0x10
    211c:	00d37333          	and	t1,t1,a3
    2120:	00670733          	add	a4,a4,t1
    2124:	00c7e863          	bltu	a5,a2,2134 <__divdf3+0x5cc>
    2128:	00080693          	mv	a3,a6
    212c:	04c79263          	bne	a5,a2,2170 <__divdf3+0x608>
    2130:	04070263          	beqz	a4,2174 <__divdf3+0x60c>
    2134:	00fc07b3          	add	a5,s8,a5
    2138:	fff80693          	addi	a3,a6,-1
    213c:	00078593          	mv	a1,a5
    2140:	0387e463          	bltu	a5,s8,2168 <__divdf3+0x600>
    2144:	00c7e663          	bltu	a5,a2,2150 <__divdf3+0x5e8>
    2148:	02c79463          	bne	a5,a2,2170 <__divdf3+0x608>
    214c:	02ecf063          	bgeu	s9,a4,216c <__divdf3+0x604>
    2150:	001c9513          	slli	a0,s9,0x1
    2154:	019535b3          	sltu	a1,a0,s9
    2158:	018585b3          	add	a1,a1,s8
    215c:	ffe80693          	addi	a3,a6,-2
    2160:	00b785b3          	add	a1,a5,a1
    2164:	00050c93          	mv	s9,a0
    2168:	00c59463          	bne	a1,a2,2170 <__divdf3+0x608>
    216c:	01970463          	beq	a4,s9,2174 <__divdf3+0x60c>
    2170:	0016e693          	ori	a3,a3,1
    2174:	3ff90793          	addi	a5,s2,1023
    2178:	0cf05863          	blez	a5,2248 <__divdf3+0x6e0>
    217c:	0076f713          	andi	a4,a3,7
    2180:	02070063          	beqz	a4,21a0 <__divdf3+0x638>
    2184:	00f6f713          	andi	a4,a3,15
    2188:	00400613          	li	a2,4
    218c:	00c70a63          	beq	a4,a2,21a0 <__divdf3+0x638>
    2190:	00468713          	addi	a4,a3,4
    2194:	00d73633          	sltu	a2,a4,a3
    2198:	00c40433          	add	s0,s0,a2
    219c:	00070693          	mv	a3,a4
    21a0:	01000737          	lui	a4,0x1000
    21a4:	00e47733          	and	a4,s0,a4
    21a8:	00070a63          	beqz	a4,21bc <__divdf3+0x654>
    21ac:	ff0007b7          	lui	a5,0xff000
    21b0:	fff78793          	addi	a5,a5,-1 # feffffff <__heap_start+0xfeffafff>
    21b4:	00f47433          	and	s0,s0,a5
    21b8:	40090793          	addi	a5,s2,1024
    21bc:	7fe00713          	li	a4,2046
    21c0:	14f74a63          	blt	a4,a5,2314 <__divdf3+0x7ac>
    21c4:	01d41713          	slli	a4,s0,0x1d
    21c8:	0036d693          	srli	a3,a3,0x3
    21cc:	00d76733          	or	a4,a4,a3
    21d0:	00345413          	srli	s0,s0,0x3
    21d4:	00c41413          	slli	s0,s0,0xc
    21d8:	00c45413          	srli	s0,s0,0xc
    21dc:	01479793          	slli	a5,a5,0x14
    21e0:	04c12083          	lw	ra,76(sp)
    21e4:	0087e7b3          	or	a5,a5,s0
    21e8:	04812403          	lw	s0,72(sp)
    21ec:	01f99993          	slli	s3,s3,0x1f
    21f0:	0137e6b3          	or	a3,a5,s3
    21f4:	04412483          	lw	s1,68(sp)
    21f8:	04012903          	lw	s2,64(sp)
    21fc:	03c12983          	lw	s3,60(sp)
    2200:	03812a03          	lw	s4,56(sp)
    2204:	03412a83          	lw	s5,52(sp)
    2208:	03012b03          	lw	s6,48(sp)
    220c:	02c12b83          	lw	s7,44(sp)
    2210:	02812c03          	lw	s8,40(sp)
    2214:	02412c83          	lw	s9,36(sp)
    2218:	02012d03          	lw	s10,32(sp)
    221c:	01c12d83          	lw	s11,28(sp)
    2220:	00070513          	mv	a0,a4
    2224:	00068593          	mv	a1,a3
    2228:	05010113          	addi	sp,sp,80
    222c:	00008067          	ret
    2230:	fff90913          	addi	s2,s2,-1
    2234:	00000d13          	li	s10,0
    2238:	bc5ff06f          	j	1dfc <__divdf3+0x294>
    223c:	000a0993          	mv	s3,s4
    2240:	00060b93          	mv	s7,a2
    2244:	b75ff06f          	j	1db8 <__divdf3+0x250>
    2248:	00100613          	li	a2,1
    224c:	00078c63          	beqz	a5,2264 <__divdf3+0x6fc>
    2250:	40f60633          	sub	a2,a2,a5
    2254:	03800713          	li	a4,56
    2258:	b6c74ce3          	blt	a4,a2,1dd0 <__divdf3+0x268>
    225c:	01f00713          	li	a4,31
    2260:	06c74663          	blt	a4,a2,22cc <__divdf3+0x764>
    2264:	41e90913          	addi	s2,s2,1054
    2268:	00c6d7b3          	srl	a5,a3,a2
    226c:	012696b3          	sll	a3,a3,s2
    2270:	00d036b3          	snez	a3,a3
    2274:	01241933          	sll	s2,s0,s2
    2278:	0126e6b3          	or	a3,a3,s2
    227c:	00d7e7b3          	or	a5,a5,a3
    2280:	00c45433          	srl	s0,s0,a2
    2284:	0077f713          	andi	a4,a5,7
    2288:	02070063          	beqz	a4,22a8 <__divdf3+0x740>
    228c:	00f7f713          	andi	a4,a5,15
    2290:	00400693          	li	a3,4
    2294:	00d70a63          	beq	a4,a3,22a8 <__divdf3+0x740>
    2298:	00478713          	addi	a4,a5,4
    229c:	00f736b3          	sltu	a3,a4,a5
    22a0:	00d40433          	add	s0,s0,a3
    22a4:	00070793          	mv	a5,a4
    22a8:	00800737          	lui	a4,0x800
    22ac:	00e47733          	and	a4,s0,a4
    22b0:	06071a63          	bnez	a4,2324 <__divdf3+0x7bc>
    22b4:	01d41713          	slli	a4,s0,0x1d
    22b8:	0037d793          	srli	a5,a5,0x3
    22bc:	00f76733          	or	a4,a4,a5
    22c0:	00345413          	srli	s0,s0,0x3
    22c4:	00000793          	li	a5,0
    22c8:	f0dff06f          	j	21d4 <__divdf3+0x66c>
    22cc:	fe100713          	li	a4,-31
    22d0:	40f707b3          	sub	a5,a4,a5
    22d4:	02000593          	li	a1,32
    22d8:	00f457b3          	srl	a5,s0,a5
    22dc:	00000713          	li	a4,0
    22e0:	00b60663          	beq	a2,a1,22ec <__divdf3+0x784>
    22e4:	43e90913          	addi	s2,s2,1086
    22e8:	01241733          	sll	a4,s0,s2
    22ec:	00d76733          	or	a4,a4,a3
    22f0:	00e03733          	snez	a4,a4
    22f4:	00e7e7b3          	or	a5,a5,a4
    22f8:	00000413          	li	s0,0
    22fc:	f89ff06f          	j	2284 <__divdf3+0x71c>
    2300:	00080437          	lui	s0,0x80
    2304:	00000713          	li	a4,0
    2308:	7ff00793          	li	a5,2047
    230c:	00000993          	li	s3,0
    2310:	ec5ff06f          	j	21d4 <__divdf3+0x66c>
    2314:	00000413          	li	s0,0
    2318:	00000713          	li	a4,0
    231c:	7ff00793          	li	a5,2047
    2320:	eb5ff06f          	j	21d4 <__divdf3+0x66c>
    2324:	00000413          	li	s0,0
    2328:	00000713          	li	a4,0
    232c:	00100793          	li	a5,1
    2330:	ea5ff06f          	j	21d4 <__divdf3+0x66c>

00002334 <__muldf3>:
    2334:	fd010113          	addi	sp,sp,-48
    2338:	01512a23          	sw	s5,20(sp)
    233c:	0145da93          	srli	s5,a1,0x14
    2340:	02812423          	sw	s0,40(sp)
    2344:	02912223          	sw	s1,36(sp)
    2348:	03212023          	sw	s2,32(sp)
    234c:	01312e23          	sw	s3,28(sp)
    2350:	01612823          	sw	s6,16(sp)
    2354:	00c59493          	slli	s1,a1,0xc
    2358:	02112623          	sw	ra,44(sp)
    235c:	01412c23          	sw	s4,24(sp)
    2360:	01712623          	sw	s7,12(sp)
    2364:	7ffafa93          	andi	s5,s5,2047
    2368:	00050413          	mv	s0,a0
    236c:	00060b13          	mv	s6,a2
    2370:	00068913          	mv	s2,a3
    2374:	00c4d493          	srli	s1,s1,0xc
    2378:	01f5d993          	srli	s3,a1,0x1f
    237c:	3c0a8063          	beqz	s5,273c <__muldf3+0x408>
    2380:	7ff00793          	li	a5,2047
    2384:	42fa8263          	beq	s5,a5,27a8 <__muldf3+0x474>
    2388:	00349493          	slli	s1,s1,0x3
    238c:	01d55793          	srli	a5,a0,0x1d
    2390:	0097e7b3          	or	a5,a5,s1
    2394:	008004b7          	lui	s1,0x800
    2398:	0097e4b3          	or	s1,a5,s1
    239c:	00351a13          	slli	s4,a0,0x3
    23a0:	c01a8a93          	addi	s5,s5,-1023
    23a4:	00000b93          	li	s7,0
    23a8:	01495713          	srli	a4,s2,0x14
    23ac:	00c91413          	slli	s0,s2,0xc
    23b0:	7ff77713          	andi	a4,a4,2047
    23b4:	00c45413          	srli	s0,s0,0xc
    23b8:	01f95913          	srli	s2,s2,0x1f
    23bc:	42070263          	beqz	a4,27e0 <__muldf3+0x4ac>
    23c0:	7ff00793          	li	a5,2047
    23c4:	48f70663          	beq	a4,a5,2850 <__muldf3+0x51c>
    23c8:	00341413          	slli	s0,s0,0x3
    23cc:	01db5793          	srli	a5,s6,0x1d
    23d0:	0087e7b3          	or	a5,a5,s0
    23d4:	00800437          	lui	s0,0x800
    23d8:	0087e433          	or	s0,a5,s0
    23dc:	c0170693          	addi	a3,a4,-1023 # 7ffc01 <__heap_start+0x7fac01>
    23e0:	003b1793          	slli	a5,s6,0x3
    23e4:	00000613          	li	a2,0
    23e8:	002b9713          	slli	a4,s7,0x2
    23ec:	00da8ab3          	add	s5,s5,a3
    23f0:	00c76733          	or	a4,a4,a2
    23f4:	00a00693          	li	a3,10
    23f8:	0129c833          	xor	a6,s3,s2
    23fc:	001a8893          	addi	a7,s5,1
    2400:	4ce6c863          	blt	a3,a4,28d0 <__muldf3+0x59c>
    2404:	00200693          	li	a3,2
    2408:	48e6c063          	blt	a3,a4,2888 <__muldf3+0x554>
    240c:	fff70713          	addi	a4,a4,-1
    2410:	00100693          	li	a3,1
    2414:	48e6fc63          	bgeu	a3,a4,28ac <__muldf3+0x578>
    2418:	00010937          	lui	s2,0x10
    241c:	fff90e13          	addi	t3,s2,-1 # ffff <__heap_start+0xafff>
    2420:	010a5293          	srli	t0,s4,0x10
    2424:	01c7ffb3          	and	t6,a5,t3
    2428:	01ca7a33          	and	s4,s4,t3
    242c:	0107df13          	srli	t5,a5,0x10
    2430:	000a0513          	mv	a0,s4
    2434:	000f8593          	mv	a1,t6
    2438:	2d9010ef          	jal	ra,3f10 <__mulsi3>
    243c:	00050793          	mv	a5,a0
    2440:	000f0593          	mv	a1,t5
    2444:	000a0513          	mv	a0,s4
    2448:	2c9010ef          	jal	ra,3f10 <__mulsi3>
    244c:	00050e93          	mv	t4,a0
    2450:	000f8593          	mv	a1,t6
    2454:	00028513          	mv	a0,t0
    2458:	2b9010ef          	jal	ra,3f10 <__mulsi3>
    245c:	00050393          	mv	t2,a0
    2460:	000f0593          	mv	a1,t5
    2464:	00028513          	mv	a0,t0
    2468:	2a9010ef          	jal	ra,3f10 <__mulsi3>
    246c:	0107d313          	srli	t1,a5,0x10
    2470:	007e8eb3          	add	t4,t4,t2
    2474:	01d30333          	add	t1,t1,t4
    2478:	00050713          	mv	a4,a0
    247c:	00737463          	bgeu	t1,t2,2484 <__muldf3+0x150>
    2480:	01250733          	add	a4,a0,s2
    2484:	01035993          	srli	s3,t1,0x10
    2488:	01c37333          	and	t1,t1,t3
    248c:	01c7f7b3          	and	a5,a5,t3
    2490:	01031313          	slli	t1,t1,0x10
    2494:	01c47e33          	and	t3,s0,t3
    2498:	00f30333          	add	t1,t1,a5
    249c:	01045913          	srli	s2,s0,0x10
    24a0:	000a0513          	mv	a0,s4
    24a4:	000e0593          	mv	a1,t3
    24a8:	269010ef          	jal	ra,3f10 <__mulsi3>
    24ac:	00050393          	mv	t2,a0
    24b0:	00090593          	mv	a1,s2
    24b4:	000a0513          	mv	a0,s4
    24b8:	259010ef          	jal	ra,3f10 <__mulsi3>
    24bc:	00050e93          	mv	t4,a0
    24c0:	000e0593          	mv	a1,t3
    24c4:	00028513          	mv	a0,t0
    24c8:	249010ef          	jal	ra,3f10 <__mulsi3>
    24cc:	00050413          	mv	s0,a0
    24d0:	00090593          	mv	a1,s2
    24d4:	00028513          	mv	a0,t0
    24d8:	239010ef          	jal	ra,3f10 <__mulsi3>
    24dc:	0103d693          	srli	a3,t2,0x10
    24e0:	008e8eb3          	add	t4,t4,s0
    24e4:	01d686b3          	add	a3,a3,t4
    24e8:	00050793          	mv	a5,a0
    24ec:	0086f663          	bgeu	a3,s0,24f8 <__muldf3+0x1c4>
    24f0:	00010637          	lui	a2,0x10
    24f4:	00c507b3          	add	a5,a0,a2
    24f8:	00010a37          	lui	s4,0x10
    24fc:	fffa0e93          	addi	t4,s4,-1 # ffff <__heap_start+0xafff>
    2500:	0106d293          	srli	t0,a3,0x10
    2504:	00f282b3          	add	t0,t0,a5
    2508:	01d6f7b3          	and	a5,a3,t4
    250c:	01d3f3b3          	and	t2,t2,t4
    2510:	01079793          	slli	a5,a5,0x10
    2514:	007787b3          	add	a5,a5,t2
    2518:	01d4feb3          	and	t4,s1,t4
    251c:	00f98433          	add	s0,s3,a5
    2520:	000e8513          	mv	a0,t4
    2524:	0104d993          	srli	s3,s1,0x10
    2528:	000f8593          	mv	a1,t6
    252c:	1e5010ef          	jal	ra,3f10 <__mulsi3>
    2530:	00050493          	mv	s1,a0
    2534:	000f0593          	mv	a1,t5
    2538:	000e8513          	mv	a0,t4
    253c:	1d5010ef          	jal	ra,3f10 <__mulsi3>
    2540:	00050393          	mv	t2,a0
    2544:	000f8593          	mv	a1,t6
    2548:	00098513          	mv	a0,s3
    254c:	1c5010ef          	jal	ra,3f10 <__mulsi3>
    2550:	00050f93          	mv	t6,a0
    2554:	000f0593          	mv	a1,t5
    2558:	00098513          	mv	a0,s3
    255c:	1b5010ef          	jal	ra,3f10 <__mulsi3>
    2560:	0104d693          	srli	a3,s1,0x10
    2564:	01f383b3          	add	t2,t2,t6
    2568:	007686b3          	add	a3,a3,t2
    256c:	00050613          	mv	a2,a0
    2570:	01f6f463          	bgeu	a3,t6,2578 <__muldf3+0x244>
    2574:	01450633          	add	a2,a0,s4
    2578:	00010a37          	lui	s4,0x10
    257c:	fffa0393          	addi	t2,s4,-1 # ffff <__heap_start+0xafff>
    2580:	0106df93          	srli	t6,a3,0x10
    2584:	0076f6b3          	and	a3,a3,t2
    2588:	01069693          	slli	a3,a3,0x10
    258c:	0074f4b3          	and	s1,s1,t2
    2590:	00cf8fb3          	add	t6,t6,a2
    2594:	00968f33          	add	t5,a3,s1
    2598:	000e8513          	mv	a0,t4
    259c:	000e0593          	mv	a1,t3
    25a0:	171010ef          	jal	ra,3f10 <__mulsi3>
    25a4:	00050493          	mv	s1,a0
    25a8:	00090593          	mv	a1,s2
    25ac:	000e8513          	mv	a0,t4
    25b0:	161010ef          	jal	ra,3f10 <__mulsi3>
    25b4:	00050e93          	mv	t4,a0
    25b8:	000e0593          	mv	a1,t3
    25bc:	00098513          	mv	a0,s3
    25c0:	151010ef          	jal	ra,3f10 <__mulsi3>
    25c4:	00050e13          	mv	t3,a0
    25c8:	00090593          	mv	a1,s2
    25cc:	00098513          	mv	a0,s3
    25d0:	141010ef          	jal	ra,3f10 <__mulsi3>
    25d4:	0104d613          	srli	a2,s1,0x10
    25d8:	01ce8eb3          	add	t4,t4,t3
    25dc:	01d60633          	add	a2,a2,t4
    25e0:	00050593          	mv	a1,a0
    25e4:	01c67463          	bgeu	a2,t3,25ec <__muldf3+0x2b8>
    25e8:	014505b3          	add	a1,a0,s4
    25ec:	007676b3          	and	a3,a2,t2
    25f0:	01069693          	slli	a3,a3,0x10
    25f4:	0074f4b3          	and	s1,s1,t2
    25f8:	00870733          	add	a4,a4,s0
    25fc:	009686b3          	add	a3,a3,s1
    2600:	005682b3          	add	t0,a3,t0
    2604:	00f737b3          	sltu	a5,a4,a5
    2608:	00f287b3          	add	a5,t0,a5
    260c:	00d2b6b3          	sltu	a3,t0,a3
    2610:	0057b2b3          	sltu	t0,a5,t0
    2614:	01065613          	srli	a2,a2,0x10
    2618:	0056e6b3          	or	a3,a3,t0
    261c:	00c686b3          	add	a3,a3,a2
    2620:	01e70633          	add	a2,a4,t5
    2624:	01f78fb3          	add	t6,a5,t6
    2628:	00e63733          	sltu	a4,a2,a4
    262c:	00ef8733          	add	a4,t6,a4
    2630:	00ffb433          	sltu	s0,t6,a5
    2634:	01f73fb3          	sltu	t6,a4,t6
    2638:	01f46433          	or	s0,s0,t6
    263c:	00d40433          	add	s0,s0,a3
    2640:	00b40433          	add	s0,s0,a1
    2644:	01775793          	srli	a5,a4,0x17
    2648:	00941413          	slli	s0,s0,0x9
    264c:	00f46433          	or	s0,s0,a5
    2650:	00961793          	slli	a5,a2,0x9
    2654:	0067e7b3          	or	a5,a5,t1
    2658:	00f037b3          	snez	a5,a5
    265c:	01765613          	srli	a2,a2,0x17
    2660:	00971713          	slli	a4,a4,0x9
    2664:	00c7e7b3          	or	a5,a5,a2
    2668:	00e7e7b3          	or	a5,a5,a4
    266c:	01000737          	lui	a4,0x1000
    2670:	00e47733          	and	a4,s0,a4
    2674:	28070063          	beqz	a4,28f4 <__muldf3+0x5c0>
    2678:	0017d713          	srli	a4,a5,0x1
    267c:	0017f793          	andi	a5,a5,1
    2680:	00f76733          	or	a4,a4,a5
    2684:	01f41793          	slli	a5,s0,0x1f
    2688:	00f767b3          	or	a5,a4,a5
    268c:	00145413          	srli	s0,s0,0x1
    2690:	3ff88693          	addi	a3,a7,1023
    2694:	26d05463          	blez	a3,28fc <__muldf3+0x5c8>
    2698:	0077f713          	andi	a4,a5,7
    269c:	02070063          	beqz	a4,26bc <__muldf3+0x388>
    26a0:	00f7f713          	andi	a4,a5,15
    26a4:	00400613          	li	a2,4
    26a8:	00c70a63          	beq	a4,a2,26bc <__muldf3+0x388>
    26ac:	00478713          	addi	a4,a5,4
    26b0:	00f73633          	sltu	a2,a4,a5
    26b4:	00c40433          	add	s0,s0,a2
    26b8:	00070793          	mv	a5,a4
    26bc:	01000737          	lui	a4,0x1000
    26c0:	00e47733          	and	a4,s0,a4
    26c4:	00070a63          	beqz	a4,26d8 <__muldf3+0x3a4>
    26c8:	ff000737          	lui	a4,0xff000
    26cc:	fff70713          	addi	a4,a4,-1 # feffffff <__heap_start+0xfeffafff>
    26d0:	00e47433          	and	s0,s0,a4
    26d4:	40088693          	addi	a3,a7,1024
    26d8:	7fe00713          	li	a4,2046
    26dc:	2ed74a63          	blt	a4,a3,29d0 <__muldf3+0x69c>
    26e0:	01d41713          	slli	a4,s0,0x1d
    26e4:	0037d793          	srli	a5,a5,0x3
    26e8:	00f76733          	or	a4,a4,a5
    26ec:	00345413          	srli	s0,s0,0x3
    26f0:	00c41413          	slli	s0,s0,0xc
    26f4:	00c45413          	srli	s0,s0,0xc
    26f8:	01469693          	slli	a3,a3,0x14
    26fc:	02c12083          	lw	ra,44(sp)
    2700:	0086e6b3          	or	a3,a3,s0
    2704:	02812403          	lw	s0,40(sp)
    2708:	01f81813          	slli	a6,a6,0x1f
    270c:	0106e7b3          	or	a5,a3,a6
    2710:	02412483          	lw	s1,36(sp)
    2714:	02012903          	lw	s2,32(sp)
    2718:	01c12983          	lw	s3,28(sp)
    271c:	01812a03          	lw	s4,24(sp)
    2720:	01412a83          	lw	s5,20(sp)
    2724:	01012b03          	lw	s6,16(sp)
    2728:	00c12b83          	lw	s7,12(sp)
    272c:	00070513          	mv	a0,a4
    2730:	00078593          	mv	a1,a5
    2734:	03010113          	addi	sp,sp,48
    2738:	00008067          	ret
    273c:	00a4ea33          	or	s4,s1,a0
    2740:	080a0063          	beqz	s4,27c0 <__muldf3+0x48c>
    2744:	04048063          	beqz	s1,2784 <__muldf3+0x450>
    2748:	00048513          	mv	a0,s1
    274c:	09d010ef          	jal	ra,3fe8 <__clzsi2>
    2750:	ff550713          	addi	a4,a0,-11
    2754:	01d00793          	li	a5,29
    2758:	ff850693          	addi	a3,a0,-8
    275c:	40e787b3          	sub	a5,a5,a4
    2760:	00d494b3          	sll	s1,s1,a3
    2764:	00f457b3          	srl	a5,s0,a5
    2768:	0097e7b3          	or	a5,a5,s1
    276c:	00d414b3          	sll	s1,s0,a3
    2770:	c0d00a93          	li	s5,-1011
    2774:	00048a13          	mv	s4,s1
    2778:	40aa8ab3          	sub	s5,s5,a0
    277c:	00078493          	mv	s1,a5
    2780:	c25ff06f          	j	23a4 <__muldf3+0x70>
    2784:	065010ef          	jal	ra,3fe8 <__clzsi2>
    2788:	00050793          	mv	a5,a0
    278c:	01578713          	addi	a4,a5,21
    2790:	01c00693          	li	a3,28
    2794:	02050513          	addi	a0,a0,32
    2798:	fae6dee3          	bge	a3,a4,2754 <__muldf3+0x420>
    279c:	ff878793          	addi	a5,a5,-8
    27a0:	00f417b3          	sll	a5,s0,a5
    27a4:	fcdff06f          	j	2770 <__muldf3+0x43c>
    27a8:	00a4ea33          	or	s4,s1,a0
    27ac:	020a0263          	beqz	s4,27d0 <__muldf3+0x49c>
    27b0:	00050a13          	mv	s4,a0
    27b4:	7ff00a93          	li	s5,2047
    27b8:	00300b93          	li	s7,3
    27bc:	bedff06f          	j	23a8 <__muldf3+0x74>
    27c0:	00000493          	li	s1,0
    27c4:	00000a93          	li	s5,0
    27c8:	00100b93          	li	s7,1
    27cc:	bddff06f          	j	23a8 <__muldf3+0x74>
    27d0:	00000493          	li	s1,0
    27d4:	7ff00a93          	li	s5,2047
    27d8:	00200b93          	li	s7,2
    27dc:	bcdff06f          	j	23a8 <__muldf3+0x74>
    27e0:	016467b3          	or	a5,s0,s6
    27e4:	08078263          	beqz	a5,2868 <__muldf3+0x534>
    27e8:	04040063          	beqz	s0,2828 <__muldf3+0x4f4>
    27ec:	00040513          	mv	a0,s0
    27f0:	7f8010ef          	jal	ra,3fe8 <__clzsi2>
    27f4:	ff550693          	addi	a3,a0,-11
    27f8:	01d00713          	li	a4,29
    27fc:	ff850793          	addi	a5,a0,-8
    2800:	40d70733          	sub	a4,a4,a3
    2804:	00f41433          	sll	s0,s0,a5
    2808:	00eb5733          	srl	a4,s6,a4
    280c:	00876733          	or	a4,a4,s0
    2810:	00fb1433          	sll	s0,s6,a5
    2814:	c0d00693          	li	a3,-1011
    2818:	00040793          	mv	a5,s0
    281c:	40a686b3          	sub	a3,a3,a0
    2820:	00070413          	mv	s0,a4
    2824:	bc1ff06f          	j	23e4 <__muldf3+0xb0>
    2828:	000b0513          	mv	a0,s6
    282c:	7bc010ef          	jal	ra,3fe8 <__clzsi2>
    2830:	00050793          	mv	a5,a0
    2834:	01578693          	addi	a3,a5,21
    2838:	01c00713          	li	a4,28
    283c:	02050513          	addi	a0,a0,32
    2840:	fad75ce3          	bge	a4,a3,27f8 <__muldf3+0x4c4>
    2844:	ff878793          	addi	a5,a5,-8
    2848:	00fb1733          	sll	a4,s6,a5
    284c:	fc9ff06f          	j	2814 <__muldf3+0x4e0>
    2850:	016467b3          	or	a5,s0,s6
    2854:	02078263          	beqz	a5,2878 <__muldf3+0x544>
    2858:	000b0793          	mv	a5,s6
    285c:	7ff00693          	li	a3,2047
    2860:	00300613          	li	a2,3
    2864:	b85ff06f          	j	23e8 <__muldf3+0xb4>
    2868:	00000413          	li	s0,0
    286c:	00000693          	li	a3,0
    2870:	00100613          	li	a2,1
    2874:	b75ff06f          	j	23e8 <__muldf3+0xb4>
    2878:	00000413          	li	s0,0
    287c:	7ff00693          	li	a3,2047
    2880:	00200613          	li	a2,2
    2884:	b65ff06f          	j	23e8 <__muldf3+0xb4>
    2888:	00100693          	li	a3,1
    288c:	00e696b3          	sll	a3,a3,a4
    2890:	5306f713          	andi	a4,a3,1328
    2894:	04071863          	bnez	a4,28e4 <__muldf3+0x5b0>
    2898:	2406f593          	andi	a1,a3,576
    289c:	10059c63          	bnez	a1,29b4 <__muldf3+0x680>
    28a0:	0886f693          	andi	a3,a3,136
    28a4:	b6068ae3          	beqz	a3,2418 <__muldf3+0xe4>
    28a8:	00090813          	mv	a6,s2
    28ac:	00200713          	li	a4,2
    28b0:	12e60063          	beq	a2,a4,29d0 <__muldf3+0x69c>
    28b4:	00300713          	li	a4,3
    28b8:	10e60663          	beq	a2,a4,29c4 <__muldf3+0x690>
    28bc:	00100713          	li	a4,1
    28c0:	dce618e3          	bne	a2,a4,2690 <__muldf3+0x35c>
    28c4:	00000413          	li	s0,0
    28c8:	00000713          	li	a4,0
    28cc:	0ac0006f          	j	2978 <__muldf3+0x644>
    28d0:	00f00693          	li	a3,15
    28d4:	0ed70863          	beq	a4,a3,29c4 <__muldf3+0x690>
    28d8:	00b00693          	li	a3,11
    28dc:	00098813          	mv	a6,s3
    28e0:	fcd704e3          	beq	a4,a3,28a8 <__muldf3+0x574>
    28e4:	00048413          	mv	s0,s1
    28e8:	000a0793          	mv	a5,s4
    28ec:	000b8613          	mv	a2,s7
    28f0:	fbdff06f          	j	28ac <__muldf3+0x578>
    28f4:	000a8893          	mv	a7,s5
    28f8:	d99ff06f          	j	2690 <__muldf3+0x35c>
    28fc:	00100613          	li	a2,1
    2900:	00068c63          	beqz	a3,2918 <__muldf3+0x5e4>
    2904:	40d60633          	sub	a2,a2,a3
    2908:	03800713          	li	a4,56
    290c:	fac74ce3          	blt	a4,a2,28c4 <__muldf3+0x590>
    2910:	01f00713          	li	a4,31
    2914:	06c74663          	blt	a4,a2,2980 <__muldf3+0x64c>
    2918:	41e88893          	addi	a7,a7,1054
    291c:	00c7d733          	srl	a4,a5,a2
    2920:	011797b3          	sll	a5,a5,a7
    2924:	00f037b3          	snez	a5,a5
    2928:	011418b3          	sll	a7,s0,a7
    292c:	0117e7b3          	or	a5,a5,a7
    2930:	00e7e7b3          	or	a5,a5,a4
    2934:	00c45433          	srl	s0,s0,a2
    2938:	0077f713          	andi	a4,a5,7
    293c:	02070063          	beqz	a4,295c <__muldf3+0x628>
    2940:	00f7f713          	andi	a4,a5,15
    2944:	00400693          	li	a3,4
    2948:	00d70a63          	beq	a4,a3,295c <__muldf3+0x628>
    294c:	00478713          	addi	a4,a5,4
    2950:	00f736b3          	sltu	a3,a4,a5
    2954:	00d40433          	add	s0,s0,a3
    2958:	00070793          	mv	a5,a4
    295c:	00800737          	lui	a4,0x800
    2960:	00e47733          	and	a4,s0,a4
    2964:	06071e63          	bnez	a4,29e0 <__muldf3+0x6ac>
    2968:	01d41713          	slli	a4,s0,0x1d
    296c:	0037d793          	srli	a5,a5,0x3
    2970:	00f76733          	or	a4,a4,a5
    2974:	00345413          	srli	s0,s0,0x3
    2978:	00000693          	li	a3,0
    297c:	d75ff06f          	j	26f0 <__muldf3+0x3bc>
    2980:	fe100713          	li	a4,-31
    2984:	40d70733          	sub	a4,a4,a3
    2988:	02000593          	li	a1,32
    298c:	00e45733          	srl	a4,s0,a4
    2990:	00000693          	li	a3,0
    2994:	00b60663          	beq	a2,a1,29a0 <__muldf3+0x66c>
    2998:	43e88893          	addi	a7,a7,1086
    299c:	011416b3          	sll	a3,s0,a7
    29a0:	00f6e6b3          	or	a3,a3,a5
    29a4:	00d036b3          	snez	a3,a3
    29a8:	00d767b3          	or	a5,a4,a3
    29ac:	00000413          	li	s0,0
    29b0:	f89ff06f          	j	2938 <__muldf3+0x604>
    29b4:	00080437          	lui	s0,0x80
    29b8:	7ff00693          	li	a3,2047
    29bc:	00000813          	li	a6,0
    29c0:	d31ff06f          	j	26f0 <__muldf3+0x3bc>
    29c4:	00080437          	lui	s0,0x80
    29c8:	00000713          	li	a4,0
    29cc:	fedff06f          	j	29b8 <__muldf3+0x684>
    29d0:	00000413          	li	s0,0
    29d4:	00000713          	li	a4,0
    29d8:	7ff00693          	li	a3,2047
    29dc:	d15ff06f          	j	26f0 <__muldf3+0x3bc>
    29e0:	00000413          	li	s0,0
    29e4:	00000713          	li	a4,0
    29e8:	00100693          	li	a3,1
    29ec:	d05ff06f          	j	26f0 <__muldf3+0x3bc>

000029f0 <__addsf3>:
    29f0:	ff010113          	addi	sp,sp,-16
    29f4:	00800737          	lui	a4,0x800
    29f8:	fff70713          	addi	a4,a4,-1 # 7fffff <__heap_start+0x7fafff>
    29fc:	0175d613          	srli	a2,a1,0x17
    2a00:	00812423          	sw	s0,8(sp)
    2a04:	01755413          	srli	s0,a0,0x17
    2a08:	00a777b3          	and	a5,a4,a0
    2a0c:	01212023          	sw	s2,0(sp)
    2a10:	00b77733          	and	a4,a4,a1
    2a14:	0ff47413          	zext.b	s0,s0
    2a18:	0ff67613          	zext.b	a2,a2
    2a1c:	00112623          	sw	ra,12(sp)
    2a20:	00912223          	sw	s1,4(sp)
    2a24:	01f55913          	srli	s2,a0,0x1f
    2a28:	01f5d593          	srli	a1,a1,0x1f
    2a2c:	00379793          	slli	a5,a5,0x3
    2a30:	00371713          	slli	a4,a4,0x3
    2a34:	40c406b3          	sub	a3,s0,a2
    2a38:	20b91863          	bne	s2,a1,2c48 <__addsf3+0x258>
    2a3c:	12d05863          	blez	a3,2b6c <__addsf3+0x17c>
    2a40:	02061e63          	bnez	a2,2a7c <__addsf3+0x8c>
    2a44:	1e070e63          	beqz	a4,2c40 <__addsf3+0x250>
    2a48:	fff68613          	addi	a2,a3,-1
    2a4c:	02061063          	bnez	a2,2a6c <__addsf3+0x7c>
    2a50:	00e787b3          	add	a5,a5,a4
    2a54:	04000737          	lui	a4,0x4000
    2a58:	00e7f733          	and	a4,a5,a4
    2a5c:	00200413          	li	s0,2
    2a60:	0e071863          	bnez	a4,2b50 <__addsf3+0x160>
    2a64:	00100413          	li	s0,1
    2a68:	0340006f          	j	2a9c <__addsf3+0xac>
    2a6c:	0ff00593          	li	a1,255
    2a70:	02b69063          	bne	a3,a1,2a90 <__addsf3+0xa0>
    2a74:	0ff00413          	li	s0,255
    2a78:	0240006f          	j	2a9c <__addsf3+0xac>
    2a7c:	0ff00613          	li	a2,255
    2a80:	00c40e63          	beq	s0,a2,2a9c <__addsf3+0xac>
    2a84:	04000637          	lui	a2,0x4000
    2a88:	00c76733          	or	a4,a4,a2
    2a8c:	00068613          	mv	a2,a3
    2a90:	01b00693          	li	a3,27
    2a94:	08c6d263          	bge	a3,a2,2b18 <__addsf3+0x128>
    2a98:	00178793          	addi	a5,a5,1
    2a9c:	0077f713          	andi	a4,a5,7
    2aa0:	00070a63          	beqz	a4,2ab4 <__addsf3+0xc4>
    2aa4:	00f7f713          	andi	a4,a5,15
    2aa8:	00400693          	li	a3,4
    2aac:	00d70463          	beq	a4,a3,2ab4 <__addsf3+0xc4>
    2ab0:	00478793          	addi	a5,a5,4
    2ab4:	04000737          	lui	a4,0x4000
    2ab8:	00e7f733          	and	a4,a5,a4
    2abc:	38070063          	beqz	a4,2e3c <__addsf3+0x44c>
    2ac0:	00140413          	addi	s0,s0,1 # 80001 <__heap_start+0x7b001>
    2ac4:	0ff00713          	li	a4,255
    2ac8:	00000493          	li	s1,0
    2acc:	00e40a63          	beq	s0,a4,2ae0 <__addsf3+0xf0>
    2ad0:	0037d493          	srli	s1,a5,0x3
    2ad4:	1f8007b7          	lui	a5,0x1f800
    2ad8:	fff78793          	addi	a5,a5,-1 # 1f7fffff <__heap_start+0x1f7fafff>
    2adc:	00f4f4b3          	and	s1,s1,a5
    2ae0:	01741413          	slli	s0,s0,0x17
    2ae4:	7f8007b7          	lui	a5,0x7f800
    2ae8:	00949493          	slli	s1,s1,0x9
    2aec:	0094d493          	srli	s1,s1,0x9
    2af0:	00f47433          	and	s0,s0,a5
    2af4:	00946433          	or	s0,s0,s1
    2af8:	01f91513          	slli	a0,s2,0x1f
    2afc:	00c12083          	lw	ra,12(sp)
    2b00:	00a46533          	or	a0,s0,a0
    2b04:	00812403          	lw	s0,8(sp)
    2b08:	00412483          	lw	s1,4(sp)
    2b0c:	00012903          	lw	s2,0(sp)
    2b10:	01010113          	addi	sp,sp,16
    2b14:	00008067          	ret
    2b18:	02000693          	li	a3,32
    2b1c:	40c686b3          	sub	a3,a3,a2
    2b20:	00c755b3          	srl	a1,a4,a2
    2b24:	00d71733          	sll	a4,a4,a3
    2b28:	00e03733          	snez	a4,a4
    2b2c:	00e5e733          	or	a4,a1,a4
    2b30:	00e787b3          	add	a5,a5,a4
    2b34:	04000737          	lui	a4,0x4000
    2b38:	00e7f733          	and	a4,a5,a4
    2b3c:	f60700e3          	beqz	a4,2a9c <__addsf3+0xac>
    2b40:	00140413          	addi	s0,s0,1
    2b44:	0ff00713          	li	a4,255
    2b48:	00000493          	li	s1,0
    2b4c:	f8e40ae3          	beq	s0,a4,2ae0 <__addsf3+0xf0>
    2b50:	7e000737          	lui	a4,0x7e000
    2b54:	0017f693          	andi	a3,a5,1
    2b58:	fff70713          	addi	a4,a4,-1 # 7dffffff <__heap_start+0x7dffafff>
    2b5c:	0017d793          	srli	a5,a5,0x1
    2b60:	00e7f7b3          	and	a5,a5,a4
    2b64:	00d7e7b3          	or	a5,a5,a3
    2b68:	f35ff06f          	j	2a9c <__addsf3+0xac>
    2b6c:	06068a63          	beqz	a3,2be0 <__addsf3+0x1f0>
    2b70:	408606b3          	sub	a3,a2,s0
    2b74:	02041063          	bnez	s0,2b94 <__addsf3+0x1a4>
    2b78:	2a078263          	beqz	a5,2e1c <__addsf3+0x42c>
    2b7c:	fff68593          	addi	a1,a3,-1
    2b80:	ec0588e3          	beqz	a1,2a50 <__addsf3+0x60>
    2b84:	0ff00513          	li	a0,255
    2b88:	02a69063          	bne	a3,a0,2ba8 <__addsf3+0x1b8>
    2b8c:	00070793          	mv	a5,a4
    2b90:	ee5ff06f          	j	2a74 <__addsf3+0x84>
    2b94:	0ff00593          	li	a1,255
    2b98:	feb60ae3          	beq	a2,a1,2b8c <__addsf3+0x19c>
    2b9c:	040005b7          	lui	a1,0x4000
    2ba0:	00b7e7b3          	or	a5,a5,a1
    2ba4:	00068593          	mv	a1,a3
    2ba8:	01b00693          	li	a3,27
    2bac:	00b6d863          	bge	a3,a1,2bbc <__addsf3+0x1cc>
    2bb0:	00170793          	addi	a5,a4,1
    2bb4:	00060413          	mv	s0,a2
    2bb8:	ee5ff06f          	j	2a9c <__addsf3+0xac>
    2bbc:	02000693          	li	a3,32
    2bc0:	40b686b3          	sub	a3,a3,a1
    2bc4:	00b7d533          	srl	a0,a5,a1
    2bc8:	00d797b3          	sll	a5,a5,a3
    2bcc:	00f037b3          	snez	a5,a5
    2bd0:	00f567b3          	or	a5,a0,a5
    2bd4:	00e787b3          	add	a5,a5,a4
    2bd8:	00060413          	mv	s0,a2
    2bdc:	f59ff06f          	j	2b34 <__addsf3+0x144>
    2be0:	00140693          	addi	a3,s0,1
    2be4:	0fe6f613          	andi	a2,a3,254
    2be8:	04061463          	bnez	a2,2c30 <__addsf3+0x240>
    2bec:	02041663          	bnez	s0,2c18 <__addsf3+0x228>
    2bf0:	22078a63          	beqz	a5,2e24 <__addsf3+0x434>
    2bf4:	ea0704e3          	beqz	a4,2a9c <__addsf3+0xac>
    2bf8:	00e787b3          	add	a5,a5,a4
    2bfc:	04000737          	lui	a4,0x4000
    2c00:	00e7f733          	and	a4,a5,a4
    2c04:	e8070ce3          	beqz	a4,2a9c <__addsf3+0xac>
    2c08:	fc000737          	lui	a4,0xfc000
    2c0c:	fff70713          	addi	a4,a4,-1 # fbffffff <__heap_start+0xfbffafff>
    2c10:	00e7f7b3          	and	a5,a5,a4
    2c14:	e51ff06f          	j	2a64 <__addsf3+0x74>
    2c18:	f6078ae3          	beqz	a5,2b8c <__addsf3+0x19c>
    2c1c:	e4070ce3          	beqz	a4,2a74 <__addsf3+0x84>
    2c20:	00000913          	li	s2,0
    2c24:	0ff00413          	li	s0,255
    2c28:	004004b7          	lui	s1,0x400
    2c2c:	eb5ff06f          	j	2ae0 <__addsf3+0xf0>
    2c30:	0ff00613          	li	a2,255
    2c34:	22c68063          	beq	a3,a2,2e54 <__addsf3+0x464>
    2c38:	00e78733          	add	a4,a5,a4
    2c3c:	00175793          	srli	a5,a4,0x1
    2c40:	00068413          	mv	s0,a3
    2c44:	e59ff06f          	j	2a9c <__addsf3+0xac>
    2c48:	08d05063          	blez	a3,2cc8 <__addsf3+0x2d8>
    2c4c:	06061263          	bnez	a2,2cb0 <__addsf3+0x2c0>
    2c50:	fe0708e3          	beqz	a4,2c40 <__addsf3+0x250>
    2c54:	fff68613          	addi	a2,a3,-1
    2c58:	00061863          	bnez	a2,2c68 <__addsf3+0x278>
    2c5c:	40e787b3          	sub	a5,a5,a4
    2c60:	00100413          	li	s0,1
    2c64:	0340006f          	j	2c98 <__addsf3+0x2a8>
    2c68:	0ff00593          	li	a1,255
    2c6c:	e0b684e3          	beq	a3,a1,2a74 <__addsf3+0x84>
    2c70:	01b00593          	li	a1,27
    2c74:	00100693          	li	a3,1
    2c78:	00c5ce63          	blt	a1,a2,2c94 <__addsf3+0x2a4>
    2c7c:	02000693          	li	a3,32
    2c80:	40c686b3          	sub	a3,a3,a2
    2c84:	00c755b3          	srl	a1,a4,a2
    2c88:	00d71733          	sll	a4,a4,a3
    2c8c:	00e03733          	snez	a4,a4
    2c90:	00e5e6b3          	or	a3,a1,a4
    2c94:	40d787b3          	sub	a5,a5,a3
    2c98:	040004b7          	lui	s1,0x4000
    2c9c:	0097f733          	and	a4,a5,s1
    2ca0:	de070ee3          	beqz	a4,2a9c <__addsf3+0xac>
    2ca4:	fff48493          	addi	s1,s1,-1 # 3ffffff <__heap_start+0x3ffafff>
    2ca8:	0097f4b3          	and	s1,a5,s1
    2cac:	1140006f          	j	2dc0 <__addsf3+0x3d0>
    2cb0:	0ff00613          	li	a2,255
    2cb4:	dec404e3          	beq	s0,a2,2a9c <__addsf3+0xac>
    2cb8:	04000637          	lui	a2,0x4000
    2cbc:	00c76733          	or	a4,a4,a2
    2cc0:	00068613          	mv	a2,a3
    2cc4:	fadff06f          	j	2c70 <__addsf3+0x280>
    2cc8:	08068063          	beqz	a3,2d48 <__addsf3+0x358>
    2ccc:	408606b3          	sub	a3,a2,s0
    2cd0:	02041863          	bnez	s0,2d00 <__addsf3+0x310>
    2cd4:	14078c63          	beqz	a5,2e2c <__addsf3+0x43c>
    2cd8:	fff68513          	addi	a0,a3,-1
    2cdc:	00051863          	bnez	a0,2cec <__addsf3+0x2fc>
    2ce0:	40f707b3          	sub	a5,a4,a5
    2ce4:	00058913          	mv	s2,a1
    2ce8:	f79ff06f          	j	2c60 <__addsf3+0x270>
    2cec:	0ff00813          	li	a6,255
    2cf0:	03069263          	bne	a3,a6,2d14 <__addsf3+0x324>
    2cf4:	00070793          	mv	a5,a4
    2cf8:	0ff00413          	li	s0,255
    2cfc:	1380006f          	j	2e34 <__addsf3+0x444>
    2d00:	0ff00513          	li	a0,255
    2d04:	fea608e3          	beq	a2,a0,2cf4 <__addsf3+0x304>
    2d08:	04000537          	lui	a0,0x4000
    2d0c:	00a7e7b3          	or	a5,a5,a0
    2d10:	00068513          	mv	a0,a3
    2d14:	01b00813          	li	a6,27
    2d18:	00100693          	li	a3,1
    2d1c:	00a84e63          	blt	a6,a0,2d38 <__addsf3+0x348>
    2d20:	02000693          	li	a3,32
    2d24:	40a686b3          	sub	a3,a3,a0
    2d28:	00a7d833          	srl	a6,a5,a0
    2d2c:	00d797b3          	sll	a5,a5,a3
    2d30:	00f037b3          	snez	a5,a5
    2d34:	00f866b3          	or	a3,a6,a5
    2d38:	40d707b3          	sub	a5,a4,a3
    2d3c:	00060413          	mv	s0,a2
    2d40:	00058913          	mv	s2,a1
    2d44:	f55ff06f          	j	2c98 <__addsf3+0x2a8>
    2d48:	00140693          	addi	a3,s0,1
    2d4c:	0fe6f693          	andi	a3,a3,254
    2d50:	04069c63          	bnez	a3,2da8 <__addsf3+0x3b8>
    2d54:	04041063          	bnez	s0,2d94 <__addsf3+0x3a4>
    2d58:	00079a63          	bnez	a5,2d6c <__addsf3+0x37c>
    2d5c:	00070793          	mv	a5,a4
    2d60:	0c071a63          	bnez	a4,2e34 <__addsf3+0x444>
    2d64:	00000493          	li	s1,0
    2d68:	0240006f          	j	2d8c <__addsf3+0x39c>
    2d6c:	d20708e3          	beqz	a4,2a9c <__addsf3+0xac>
    2d70:	40e784b3          	sub	s1,a5,a4
    2d74:	040006b7          	lui	a3,0x4000
    2d78:	00d4f6b3          	and	a3,s1,a3
    2d7c:	40f707b3          	sub	a5,a4,a5
    2d80:	0a069a63          	bnez	a3,2e34 <__addsf3+0x444>
    2d84:	00048793          	mv	a5,s1
    2d88:	d0049ae3          	bnez	s1,2a9c <__addsf3+0xac>
    2d8c:	00000913          	li	s2,0
    2d90:	d51ff06f          	j	2ae0 <__addsf3+0xf0>
    2d94:	e80794e3          	bnez	a5,2c1c <__addsf3+0x22c>
    2d98:	e80704e3          	beqz	a4,2c20 <__addsf3+0x230>
    2d9c:	00070793          	mv	a5,a4
    2da0:	00058913          	mv	s2,a1
    2da4:	cd1ff06f          	j	2a74 <__addsf3+0x84>
    2da8:	40e784b3          	sub	s1,a5,a4
    2dac:	040006b7          	lui	a3,0x4000
    2db0:	00d4f6b3          	and	a3,s1,a3
    2db4:	04068463          	beqz	a3,2dfc <__addsf3+0x40c>
    2db8:	40f704b3          	sub	s1,a4,a5
    2dbc:	00058913          	mv	s2,a1
    2dc0:	00048513          	mv	a0,s1
    2dc4:	224010ef          	jal	ra,3fe8 <__clzsi2>
    2dc8:	ffb50513          	addi	a0,a0,-5 # 3fffffb <__heap_start+0x3ffaffb>
    2dcc:	00a494b3          	sll	s1,s1,a0
    2dd0:	02854c63          	blt	a0,s0,2e08 <__addsf3+0x418>
    2dd4:	40850533          	sub	a0,a0,s0
    2dd8:	00150513          	addi	a0,a0,1
    2ddc:	02000713          	li	a4,32
    2de0:	40a70733          	sub	a4,a4,a0
    2de4:	00a4d7b3          	srl	a5,s1,a0
    2de8:	00e494b3          	sll	s1,s1,a4
    2dec:	009034b3          	snez	s1,s1
    2df0:	0097e7b3          	or	a5,a5,s1
    2df4:	00000413          	li	s0,0
    2df8:	ca5ff06f          	j	2a9c <__addsf3+0xac>
    2dfc:	fc0492e3          	bnez	s1,2dc0 <__addsf3+0x3d0>
    2e00:	00000413          	li	s0,0
    2e04:	f89ff06f          	j	2d8c <__addsf3+0x39c>
    2e08:	fc0007b7          	lui	a5,0xfc000
    2e0c:	fff78793          	addi	a5,a5,-1 # fbffffff <__heap_start+0xfbffafff>
    2e10:	40a40433          	sub	s0,s0,a0
    2e14:	00f4f7b3          	and	a5,s1,a5
    2e18:	c85ff06f          	j	2a9c <__addsf3+0xac>
    2e1c:	00070793          	mv	a5,a4
    2e20:	e21ff06f          	j	2c40 <__addsf3+0x250>
    2e24:	00070793          	mv	a5,a4
    2e28:	c75ff06f          	j	2a9c <__addsf3+0xac>
    2e2c:	00070793          	mv	a5,a4
    2e30:	00068413          	mv	s0,a3
    2e34:	00058913          	mv	s2,a1
    2e38:	c65ff06f          	j	2a9c <__addsf3+0xac>
    2e3c:	0037d493          	srli	s1,a5,0x3
    2e40:	0ff00793          	li	a5,255
    2e44:	c8f41ee3          	bne	s0,a5,2ae0 <__addsf3+0xf0>
    2e48:	c8048ce3          	beqz	s1,2ae0 <__addsf3+0xf0>
    2e4c:	004004b7          	lui	s1,0x400
    2e50:	f3dff06f          	j	2d8c <__addsf3+0x39c>
    2e54:	0ff00413          	li	s0,255
    2e58:	00000493          	li	s1,0
    2e5c:	c85ff06f          	j	2ae0 <__addsf3+0xf0>

00002e60 <__divsf3>:
    2e60:	fd010113          	addi	sp,sp,-48
    2e64:	02912223          	sw	s1,36(sp)
    2e68:	01755493          	srli	s1,a0,0x17
    2e6c:	03212023          	sw	s2,32(sp)
    2e70:	01512a23          	sw	s5,20(sp)
    2e74:	01612823          	sw	s6,16(sp)
    2e78:	00951a93          	slli	s5,a0,0x9
    2e7c:	02112623          	sw	ra,44(sp)
    2e80:	02812423          	sw	s0,40(sp)
    2e84:	01312e23          	sw	s3,28(sp)
    2e88:	01412c23          	sw	s4,24(sp)
    2e8c:	01712623          	sw	s7,12(sp)
    2e90:	01812423          	sw	s8,8(sp)
    2e94:	0ff4f493          	zext.b	s1,s1
    2e98:	00058b13          	mv	s6,a1
    2e9c:	009ada93          	srli	s5,s5,0x9
    2ea0:	01f55913          	srli	s2,a0,0x1f
    2ea4:	08048463          	beqz	s1,2f2c <__divsf3+0xcc>
    2ea8:	0ff00793          	li	a5,255
    2eac:	0af48063          	beq	s1,a5,2f4c <__divsf3+0xec>
    2eb0:	003a9a93          	slli	s5,s5,0x3
    2eb4:	040007b7          	lui	a5,0x4000
    2eb8:	00faeab3          	or	s5,s5,a5
    2ebc:	f8148493          	addi	s1,s1,-127 # 3fff81 <__heap_start+0x3faf81>
    2ec0:	00000b93          	li	s7,0
    2ec4:	017b5793          	srli	a5,s6,0x17
    2ec8:	009b1413          	slli	s0,s6,0x9
    2ecc:	0ff7f793          	zext.b	a5,a5
    2ed0:	00945413          	srli	s0,s0,0x9
    2ed4:	01fb5b13          	srli	s6,s6,0x1f
    2ed8:	08078a63          	beqz	a5,2f6c <__divsf3+0x10c>
    2edc:	0ff00713          	li	a4,255
    2ee0:	0ae78663          	beq	a5,a4,2f8c <__divsf3+0x12c>
    2ee4:	00341413          	slli	s0,s0,0x3
    2ee8:	04000737          	lui	a4,0x4000
    2eec:	00e46433          	or	s0,s0,a4
    2ef0:	f8178793          	addi	a5,a5,-127 # 3ffff81 <__heap_start+0x3ffaf81>
    2ef4:	00000713          	li	a4,0
    2ef8:	40f48a33          	sub	s4,s1,a5
    2efc:	002b9793          	slli	a5,s7,0x2
    2f00:	00e7e7b3          	or	a5,a5,a4
    2f04:	fff78793          	addi	a5,a5,-1
    2f08:	00e00693          	li	a3,14
    2f0c:	016949b3          	xor	s3,s2,s6
    2f10:	0cf6e663          	bltu	a3,a5,2fdc <__divsf3+0x17c>
    2f14:	000046b7          	lui	a3,0x4
    2f18:	00279793          	slli	a5,a5,0x2
    2f1c:	6e868693          	addi	a3,a3,1768 # 46e8 <main+0x6b4>
    2f20:	00d787b3          	add	a5,a5,a3
    2f24:	0007a783          	lw	a5,0(a5)
    2f28:	00078067          	jr	a5
    2f2c:	020a8a63          	beqz	s5,2f60 <__divsf3+0x100>
    2f30:	000a8513          	mv	a0,s5
    2f34:	0b4010ef          	jal	ra,3fe8 <__clzsi2>
    2f38:	ffb50793          	addi	a5,a0,-5
    2f3c:	f8a00493          	li	s1,-118
    2f40:	00fa9ab3          	sll	s5,s5,a5
    2f44:	40a484b3          	sub	s1,s1,a0
    2f48:	f79ff06f          	j	2ec0 <__divsf3+0x60>
    2f4c:	0ff00493          	li	s1,255
    2f50:	00300b93          	li	s7,3
    2f54:	f60a98e3          	bnez	s5,2ec4 <__divsf3+0x64>
    2f58:	00200b93          	li	s7,2
    2f5c:	f69ff06f          	j	2ec4 <__divsf3+0x64>
    2f60:	00000493          	li	s1,0
    2f64:	00100b93          	li	s7,1
    2f68:	f5dff06f          	j	2ec4 <__divsf3+0x64>
    2f6c:	02040a63          	beqz	s0,2fa0 <__divsf3+0x140>
    2f70:	00040513          	mv	a0,s0
    2f74:	074010ef          	jal	ra,3fe8 <__clzsi2>
    2f78:	ffb50793          	addi	a5,a0,-5
    2f7c:	00f41433          	sll	s0,s0,a5
    2f80:	f8a00793          	li	a5,-118
    2f84:	40a787b3          	sub	a5,a5,a0
    2f88:	f6dff06f          	j	2ef4 <__divsf3+0x94>
    2f8c:	0ff00793          	li	a5,255
    2f90:	00300713          	li	a4,3
    2f94:	f60412e3          	bnez	s0,2ef8 <__divsf3+0x98>
    2f98:	00200713          	li	a4,2
    2f9c:	f5dff06f          	j	2ef8 <__divsf3+0x98>
    2fa0:	00000793          	li	a5,0
    2fa4:	00100713          	li	a4,1
    2fa8:	f51ff06f          	j	2ef8 <__divsf3+0x98>
    2fac:	00090993          	mv	s3,s2
    2fb0:	000a8413          	mv	s0,s5
    2fb4:	000b8713          	mv	a4,s7
    2fb8:	00200793          	li	a5,2
    2fbc:	22f70063          	beq	a4,a5,31dc <__divsf3+0x37c>
    2fc0:	00300793          	li	a5,3
    2fc4:	20f70463          	beq	a4,a5,31cc <__divsf3+0x36c>
    2fc8:	00100793          	li	a5,1
    2fcc:	0ef71c63          	bne	a4,a5,30c4 <__divsf3+0x264>
    2fd0:	00000793          	li	a5,0
    2fd4:	00000713          	li	a4,0
    2fd8:	1340006f          	j	310c <__divsf3+0x2ac>
    2fdc:	00541c13          	slli	s8,s0,0x5
    2fe0:	168afa63          	bgeu	s5,s0,3154 <__divsf3+0x2f4>
    2fe4:	fffa0a13          	addi	s4,s4,-1
    2fe8:	00000413          	li	s0,0
    2fec:	010c5b13          	srli	s6,s8,0x10
    2ff0:	00010937          	lui	s2,0x10
    2ff4:	000b0593          	mv	a1,s6
    2ff8:	fff90913          	addi	s2,s2,-1 # ffff <__heap_start+0xafff>
    2ffc:	000a8513          	mv	a0,s5
    3000:	73d000ef          	jal	ra,3f3c <__hidden___udivsi3>
    3004:	012c7933          	and	s2,s8,s2
    3008:	00050593          	mv	a1,a0
    300c:	00050b93          	mv	s7,a0
    3010:	00090513          	mv	a0,s2
    3014:	6fd000ef          	jal	ra,3f10 <__mulsi3>
    3018:	00050493          	mv	s1,a0
    301c:	000b0593          	mv	a1,s6
    3020:	000a8513          	mv	a0,s5
    3024:	761000ef          	jal	ra,3f84 <__umodsi3>
    3028:	01045793          	srli	a5,s0,0x10
    302c:	01051513          	slli	a0,a0,0x10
    3030:	00a7e7b3          	or	a5,a5,a0
    3034:	000b8413          	mv	s0,s7
    3038:	0097fe63          	bgeu	a5,s1,3054 <__divsf3+0x1f4>
    303c:	00fc07b3          	add	a5,s8,a5
    3040:	fffb8413          	addi	s0,s7,-1
    3044:	0187e863          	bltu	a5,s8,3054 <__divsf3+0x1f4>
    3048:	0097f663          	bgeu	a5,s1,3054 <__divsf3+0x1f4>
    304c:	ffeb8413          	addi	s0,s7,-2
    3050:	018787b3          	add	a5,a5,s8
    3054:	409784b3          	sub	s1,a5,s1
    3058:	000b0593          	mv	a1,s6
    305c:	00048513          	mv	a0,s1
    3060:	6dd000ef          	jal	ra,3f3c <__hidden___udivsi3>
    3064:	00050593          	mv	a1,a0
    3068:	00050a93          	mv	s5,a0
    306c:	00090513          	mv	a0,s2
    3070:	6a1000ef          	jal	ra,3f10 <__mulsi3>
    3074:	00050913          	mv	s2,a0
    3078:	000b0593          	mv	a1,s6
    307c:	00048513          	mv	a0,s1
    3080:	705000ef          	jal	ra,3f84 <__umodsi3>
    3084:	01051793          	slli	a5,a0,0x10
    3088:	000a8713          	mv	a4,s5
    308c:	0327f263          	bgeu	a5,s2,30b0 <__divsf3+0x250>
    3090:	018786b3          	add	a3,a5,s8
    3094:	00f6b633          	sltu	a2,a3,a5
    3098:	fffa8713          	addi	a4,s5,-1
    309c:	00068793          	mv	a5,a3
    30a0:	00061863          	bnez	a2,30b0 <__divsf3+0x250>
    30a4:	0126f663          	bgeu	a3,s2,30b0 <__divsf3+0x250>
    30a8:	ffea8713          	addi	a4,s5,-2
    30ac:	018687b3          	add	a5,a3,s8
    30b0:	01041413          	slli	s0,s0,0x10
    30b4:	412787b3          	sub	a5,a5,s2
    30b8:	00e46433          	or	s0,s0,a4
    30bc:	00f037b3          	snez	a5,a5
    30c0:	00f46433          	or	s0,s0,a5
    30c4:	07fa0713          	addi	a4,s4,127
    30c8:	0ae05063          	blez	a4,3168 <__divsf3+0x308>
    30cc:	00747793          	andi	a5,s0,7
    30d0:	00078a63          	beqz	a5,30e4 <__divsf3+0x284>
    30d4:	00f47793          	andi	a5,s0,15
    30d8:	00400693          	li	a3,4
    30dc:	00d78463          	beq	a5,a3,30e4 <__divsf3+0x284>
    30e0:	00440413          	addi	s0,s0,4
    30e4:	080007b7          	lui	a5,0x8000
    30e8:	00f477b3          	and	a5,s0,a5
    30ec:	00078a63          	beqz	a5,3100 <__divsf3+0x2a0>
    30f0:	f80007b7          	lui	a5,0xf8000
    30f4:	fff78793          	addi	a5,a5,-1 # f7ffffff <__heap_start+0xf7ffafff>
    30f8:	00f47433          	and	s0,s0,a5
    30fc:	080a0713          	addi	a4,s4,128
    3100:	0fe00793          	li	a5,254
    3104:	0ce7cc63          	blt	a5,a4,31dc <__divsf3+0x37c>
    3108:	00345793          	srli	a5,s0,0x3
    310c:	02c12083          	lw	ra,44(sp)
    3110:	02812403          	lw	s0,40(sp)
    3114:	00979793          	slli	a5,a5,0x9
    3118:	01771713          	slli	a4,a4,0x17
    311c:	0097d793          	srli	a5,a5,0x9
    3120:	01f99513          	slli	a0,s3,0x1f
    3124:	00f76733          	or	a4,a4,a5
    3128:	02412483          	lw	s1,36(sp)
    312c:	02012903          	lw	s2,32(sp)
    3130:	01c12983          	lw	s3,28(sp)
    3134:	01812a03          	lw	s4,24(sp)
    3138:	01412a83          	lw	s5,20(sp)
    313c:	01012b03          	lw	s6,16(sp)
    3140:	00c12b83          	lw	s7,12(sp)
    3144:	00812c03          	lw	s8,8(sp)
    3148:	00a76533          	or	a0,a4,a0
    314c:	03010113          	addi	sp,sp,48
    3150:	00008067          	ret
    3154:	01fa9413          	slli	s0,s5,0x1f
    3158:	001ada93          	srli	s5,s5,0x1
    315c:	e91ff06f          	j	2fec <__divsf3+0x18c>
    3160:	000b0993          	mv	s3,s6
    3164:	e55ff06f          	j	2fb8 <__divsf3+0x158>
    3168:	00100693          	li	a3,1
    316c:	00070c63          	beqz	a4,3184 <__divsf3+0x324>
    3170:	40e686b3          	sub	a3,a3,a4
    3174:	01b00613          	li	a2,27
    3178:	00000793          	li	a5,0
    317c:	00000713          	li	a4,0
    3180:	f8d646e3          	blt	a2,a3,310c <__divsf3+0x2ac>
    3184:	09ea0493          	addi	s1,s4,158
    3188:	00d456b3          	srl	a3,s0,a3
    318c:	00941433          	sll	s0,s0,s1
    3190:	00803433          	snez	s0,s0
    3194:	0086e7b3          	or	a5,a3,s0
    3198:	0077f713          	andi	a4,a5,7
    319c:	00070a63          	beqz	a4,31b0 <__divsf3+0x350>
    31a0:	00f7f713          	andi	a4,a5,15
    31a4:	00400693          	li	a3,4
    31a8:	00d70463          	beq	a4,a3,31b0 <__divsf3+0x350>
    31ac:	00478793          	addi	a5,a5,4
    31b0:	04000737          	lui	a4,0x4000
    31b4:	00e7f733          	and	a4,a5,a4
    31b8:	0037d793          	srli	a5,a5,0x3
    31bc:	f40708e3          	beqz	a4,310c <__divsf3+0x2ac>
    31c0:	00000793          	li	a5,0
    31c4:	00100713          	li	a4,1
    31c8:	f45ff06f          	j	310c <__divsf3+0x2ac>
    31cc:	004007b7          	lui	a5,0x400
    31d0:	0ff00713          	li	a4,255
    31d4:	00000993          	li	s3,0
    31d8:	f35ff06f          	j	310c <__divsf3+0x2ac>
    31dc:	00000793          	li	a5,0
    31e0:	0ff00713          	li	a4,255
    31e4:	f29ff06f          	j	310c <__divsf3+0x2ac>

000031e8 <__eqsf2>:
    31e8:	01755693          	srli	a3,a0,0x17
    31ec:	00800737          	lui	a4,0x800
    31f0:	fff70713          	addi	a4,a4,-1 # 7fffff <__heap_start+0x7fafff>
    31f4:	0175d813          	srli	a6,a1,0x17
    31f8:	0ff6f693          	zext.b	a3,a3
    31fc:	0ff00893          	li	a7,255
    3200:	00a77633          	and	a2,a4,a0
    3204:	01f55793          	srli	a5,a0,0x1f
    3208:	00b77733          	and	a4,a4,a1
    320c:	0ff87813          	zext.b	a6,a6
    3210:	01f5d593          	srli	a1,a1,0x1f
    3214:	00100513          	li	a0,1
    3218:	01168663          	beq	a3,a7,3224 <__eqsf2+0x3c>
    321c:	01181e63          	bne	a6,a7,3238 <__eqsf2+0x50>
    3220:	00008067          	ret
    3224:	02d81a63          	bne	a6,a3,3258 <__eqsf2+0x70>
    3228:	00e66633          	or	a2,a2,a4
    322c:	02061663          	bnez	a2,3258 <__eqsf2+0x70>
    3230:	00b7c533          	xor	a0,a5,a1
    3234:	00008067          	ret
    3238:	00100513          	li	a0,1
    323c:	01069e63          	bne	a3,a6,3258 <__eqsf2+0x70>
    3240:	00e61c63          	bne	a2,a4,3258 <__eqsf2+0x70>
    3244:	00b78863          	beq	a5,a1,3254 <__eqsf2+0x6c>
    3248:	00069863          	bnez	a3,3258 <__eqsf2+0x70>
    324c:	00c03533          	snez	a0,a2
    3250:	00008067          	ret
    3254:	00000513          	li	a0,0
    3258:	00008067          	ret

0000325c <__gesf2>:
    325c:	00800737          	lui	a4,0x800
    3260:	fff70713          	addi	a4,a4,-1 # 7fffff <__heap_start+0x7fafff>
    3264:	01755693          	srli	a3,a0,0x17
    3268:	00a77633          	and	a2,a4,a0
    326c:	01f55793          	srli	a5,a0,0x1f
    3270:	0ff6f693          	zext.b	a3,a3
    3274:	0175d513          	srli	a0,a1,0x17
    3278:	0ff00813          	li	a6,255
    327c:	00b77733          	and	a4,a4,a1
    3280:	0ff57513          	zext.b	a0,a0
    3284:	01f5d593          	srli	a1,a1,0x1f
    3288:	03069863          	bne	a3,a6,32b8 <__gesf2+0x5c>
    328c:	08061e63          	bnez	a2,3328 <__gesf2+0xcc>
    3290:	00d50a63          	beq	a0,a3,32a4 <__gesf2+0x48>
    3294:	00100513          	li	a0,1
    3298:	06078c63          	beqz	a5,3310 <__gesf2+0xb4>
    329c:	fff00513          	li	a0,-1
    32a0:	00008067          	ret
    32a4:	ffe00513          	li	a0,-2
    32a8:	06071463          	bnez	a4,3310 <__gesf2+0xb4>
    32ac:	feb794e3          	bne	a5,a1,3294 <__gesf2+0x38>
    32b0:	00000513          	li	a0,0
    32b4:	00008067          	ret
    32b8:	03051463          	bne	a0,a6,32e0 <__gesf2+0x84>
    32bc:	ffe00513          	li	a0,-2
    32c0:	04071863          	bnez	a4,3310 <__gesf2+0xb4>
    32c4:	00069463          	bnez	a3,32cc <__gesf2+0x70>
    32c8:	04060863          	beqz	a2,3318 <__gesf2+0xbc>
    32cc:	fcb794e3          	bne	a5,a1,3294 <__gesf2+0x38>
    32d0:	fff00513          	li	a0,-1
    32d4:	02078e63          	beqz	a5,3310 <__gesf2+0xb4>
    32d8:	00078513          	mv	a0,a5
    32dc:	00008067          	ret
    32e0:	02068263          	beqz	a3,3304 <__gesf2+0xa8>
    32e4:	fa0508e3          	beqz	a0,3294 <__gesf2+0x38>
    32e8:	fab796e3          	bne	a5,a1,3294 <__gesf2+0x38>
    32ec:	fad544e3          	blt	a0,a3,3294 <__gesf2+0x38>
    32f0:	fea6c0e3          	blt	a3,a0,32d0 <__gesf2+0x74>
    32f4:	fac760e3          	bltu	a4,a2,3294 <__gesf2+0x38>
    32f8:	00000513          	li	a0,0
    32fc:	00e67a63          	bgeu	a2,a4,3310 <__gesf2+0xb4>
    3300:	fd1ff06f          	j	32d0 <__gesf2+0x74>
    3304:	fc0512e3          	bnez	a0,32c8 <__gesf2+0x6c>
    3308:	00071663          	bnez	a4,3314 <__gesf2+0xb8>
    330c:	f80614e3          	bnez	a2,3294 <__gesf2+0x38>
    3310:	00008067          	ret
    3314:	00061e63          	bnez	a2,3330 <__gesf2+0xd4>
    3318:	fff00513          	li	a0,-1
    331c:	fe058ae3          	beqz	a1,3310 <__gesf2+0xb4>
    3320:	00058513          	mv	a0,a1
    3324:	00008067          	ret
    3328:	ffe00513          	li	a0,-2
    332c:	00008067          	ret
    3330:	fcb782e3          	beq	a5,a1,32f4 <__gesf2+0x98>
    3334:	f61ff06f          	j	3294 <__gesf2+0x38>

00003338 <__lesf2>:
    3338:	00800737          	lui	a4,0x800
    333c:	fff70713          	addi	a4,a4,-1 # 7fffff <__heap_start+0x7fafff>
    3340:	01755693          	srli	a3,a0,0x17
    3344:	00a77633          	and	a2,a4,a0
    3348:	01f55793          	srli	a5,a0,0x1f
    334c:	0ff6f693          	zext.b	a3,a3
    3350:	0175d513          	srli	a0,a1,0x17
    3354:	0ff00813          	li	a6,255
    3358:	00b77733          	and	a4,a4,a1
    335c:	0ff57513          	zext.b	a0,a0
    3360:	01f5d593          	srli	a1,a1,0x1f
    3364:	03069863          	bne	a3,a6,3394 <__lesf2+0x5c>
    3368:	08061e63          	bnez	a2,3404 <__lesf2+0xcc>
    336c:	00d50a63          	beq	a0,a3,3380 <__lesf2+0x48>
    3370:	00100513          	li	a0,1
    3374:	06078c63          	beqz	a5,33ec <__lesf2+0xb4>
    3378:	fff00513          	li	a0,-1
    337c:	00008067          	ret
    3380:	00200513          	li	a0,2
    3384:	06071463          	bnez	a4,33ec <__lesf2+0xb4>
    3388:	feb794e3          	bne	a5,a1,3370 <__lesf2+0x38>
    338c:	00000513          	li	a0,0
    3390:	00008067          	ret
    3394:	03051463          	bne	a0,a6,33bc <__lesf2+0x84>
    3398:	00200513          	li	a0,2
    339c:	04071863          	bnez	a4,33ec <__lesf2+0xb4>
    33a0:	00069463          	bnez	a3,33a8 <__lesf2+0x70>
    33a4:	04060863          	beqz	a2,33f4 <__lesf2+0xbc>
    33a8:	fcb794e3          	bne	a5,a1,3370 <__lesf2+0x38>
    33ac:	fff00513          	li	a0,-1
    33b0:	02078e63          	beqz	a5,33ec <__lesf2+0xb4>
    33b4:	00078513          	mv	a0,a5
    33b8:	00008067          	ret
    33bc:	02068263          	beqz	a3,33e0 <__lesf2+0xa8>
    33c0:	fa0508e3          	beqz	a0,3370 <__lesf2+0x38>
    33c4:	fab796e3          	bne	a5,a1,3370 <__lesf2+0x38>
    33c8:	fad544e3          	blt	a0,a3,3370 <__lesf2+0x38>
    33cc:	fea6c0e3          	blt	a3,a0,33ac <__lesf2+0x74>
    33d0:	fac760e3          	bltu	a4,a2,3370 <__lesf2+0x38>
    33d4:	00000513          	li	a0,0
    33d8:	00e67a63          	bgeu	a2,a4,33ec <__lesf2+0xb4>
    33dc:	fd1ff06f          	j	33ac <__lesf2+0x74>
    33e0:	fc0512e3          	bnez	a0,33a4 <__lesf2+0x6c>
    33e4:	00071663          	bnez	a4,33f0 <__lesf2+0xb8>
    33e8:	f80614e3          	bnez	a2,3370 <__lesf2+0x38>
    33ec:	00008067          	ret
    33f0:	00061e63          	bnez	a2,340c <__lesf2+0xd4>
    33f4:	fff00513          	li	a0,-1
    33f8:	fe058ae3          	beqz	a1,33ec <__lesf2+0xb4>
    33fc:	00058513          	mv	a0,a1
    3400:	00008067          	ret
    3404:	00200513          	li	a0,2
    3408:	00008067          	ret
    340c:	fcb782e3          	beq	a5,a1,33d0 <__lesf2+0x98>
    3410:	f61ff06f          	j	3370 <__lesf2+0x38>

00003414 <__mulsf3>:
    3414:	fe010113          	addi	sp,sp,-32
    3418:	01212823          	sw	s2,16(sp)
    341c:	01755913          	srli	s2,a0,0x17
    3420:	00912a23          	sw	s1,20(sp)
    3424:	01312623          	sw	s3,12(sp)
    3428:	01512223          	sw	s5,4(sp)
    342c:	00951493          	slli	s1,a0,0x9
    3430:	00112e23          	sw	ra,28(sp)
    3434:	00812c23          	sw	s0,24(sp)
    3438:	01412423          	sw	s4,8(sp)
    343c:	0ff97913          	zext.b	s2,s2
    3440:	00058a93          	mv	s5,a1
    3444:	0094d493          	srli	s1,s1,0x9
    3448:	01f55993          	srli	s3,a0,0x1f
    344c:	1a090e63          	beqz	s2,3608 <__mulsf3+0x1f4>
    3450:	0ff00793          	li	a5,255
    3454:	1cf90a63          	beq	s2,a5,3628 <__mulsf3+0x214>
    3458:	00349493          	slli	s1,s1,0x3
    345c:	040007b7          	lui	a5,0x4000
    3460:	00f4e4b3          	or	s1,s1,a5
    3464:	f8190913          	addi	s2,s2,-127
    3468:	00000a13          	li	s4,0
    346c:	017ad793          	srli	a5,s5,0x17
    3470:	009a9413          	slli	s0,s5,0x9
    3474:	0ff7f793          	zext.b	a5,a5
    3478:	00945413          	srli	s0,s0,0x9
    347c:	01fada93          	srli	s5,s5,0x1f
    3480:	1c078463          	beqz	a5,3648 <__mulsf3+0x234>
    3484:	0ff00713          	li	a4,255
    3488:	1ee78063          	beq	a5,a4,3668 <__mulsf3+0x254>
    348c:	00341413          	slli	s0,s0,0x3
    3490:	04000737          	lui	a4,0x4000
    3494:	00e46433          	or	s0,s0,a4
    3498:	f8178793          	addi	a5,a5,-127 # 3ffff81 <__heap_start+0x3ffaf81>
    349c:	00000713          	li	a4,0
    34a0:	00f90933          	add	s2,s2,a5
    34a4:	002a1793          	slli	a5,s4,0x2
    34a8:	00e7e7b3          	or	a5,a5,a4
    34ac:	00a00693          	li	a3,10
    34b0:	0159c833          	xor	a6,s3,s5
    34b4:	00190893          	addi	a7,s2,1
    34b8:	20f6cc63          	blt	a3,a5,36d0 <__mulsf3+0x2bc>
    34bc:	00200693          	li	a3,2
    34c0:	1cf6c463          	blt	a3,a5,3688 <__mulsf3+0x274>
    34c4:	fff78793          	addi	a5,a5,-1
    34c8:	00100693          	li	a3,1
    34cc:	1ef6f063          	bgeu	a3,a5,36ac <__mulsf3+0x298>
    34d0:	00010eb7          	lui	t4,0x10
    34d4:	fffe8313          	addi	t1,t4,-1 # ffff <__heap_start+0xafff>
    34d8:	0104df93          	srli	t6,s1,0x10
    34dc:	01045f13          	srli	t5,s0,0x10
    34e0:	0064f4b3          	and	s1,s1,t1
    34e4:	00647433          	and	s0,s0,t1
    34e8:	00048513          	mv	a0,s1
    34ec:	00040593          	mv	a1,s0
    34f0:	221000ef          	jal	ra,3f10 <__mulsi3>
    34f4:	00050713          	mv	a4,a0
    34f8:	000f0593          	mv	a1,t5
    34fc:	00048513          	mv	a0,s1
    3500:	211000ef          	jal	ra,3f10 <__mulsi3>
    3504:	00050793          	mv	a5,a0
    3508:	00040593          	mv	a1,s0
    350c:	000f8513          	mv	a0,t6
    3510:	201000ef          	jal	ra,3f10 <__mulsi3>
    3514:	00050e13          	mv	t3,a0
    3518:	000f0593          	mv	a1,t5
    351c:	000f8513          	mv	a0,t6
    3520:	1f1000ef          	jal	ra,3f10 <__mulsi3>
    3524:	01075413          	srli	s0,a4,0x10
    3528:	01c787b3          	add	a5,a5,t3
    352c:	00f40433          	add	s0,s0,a5
    3530:	00050693          	mv	a3,a0
    3534:	01c47463          	bgeu	s0,t3,353c <__mulsf3+0x128>
    3538:	01d506b3          	add	a3,a0,t4
    353c:	006477b3          	and	a5,s0,t1
    3540:	00677733          	and	a4,a4,t1
    3544:	01079793          	slli	a5,a5,0x10
    3548:	00e787b3          	add	a5,a5,a4
    354c:	00679713          	slli	a4,a5,0x6
    3550:	01045413          	srli	s0,s0,0x10
    3554:	00e03733          	snez	a4,a4
    3558:	01a7d793          	srli	a5,a5,0x1a
    355c:	00d40433          	add	s0,s0,a3
    3560:	00f767b3          	or	a5,a4,a5
    3564:	00641413          	slli	s0,s0,0x6
    3568:	00f46433          	or	s0,s0,a5
    356c:	080007b7          	lui	a5,0x8000
    3570:	00f477b3          	and	a5,s0,a5
    3574:	16078e63          	beqz	a5,36f0 <__mulsf3+0x2dc>
    3578:	00145793          	srli	a5,s0,0x1
    357c:	00147413          	andi	s0,s0,1
    3580:	0087e433          	or	s0,a5,s0
    3584:	07f88513          	addi	a0,a7,127
    3588:	16a05863          	blez	a0,36f8 <__mulsf3+0x2e4>
    358c:	00747793          	andi	a5,s0,7
    3590:	00078a63          	beqz	a5,35a4 <__mulsf3+0x190>
    3594:	00f47793          	andi	a5,s0,15
    3598:	00400713          	li	a4,4
    359c:	00e78463          	beq	a5,a4,35a4 <__mulsf3+0x190>
    35a0:	00440413          	addi	s0,s0,4
    35a4:	080007b7          	lui	a5,0x8000
    35a8:	00f477b3          	and	a5,s0,a5
    35ac:	00078a63          	beqz	a5,35c0 <__mulsf3+0x1ac>
    35b0:	f80007b7          	lui	a5,0xf8000
    35b4:	fff78793          	addi	a5,a5,-1 # f7ffffff <__heap_start+0xf7ffafff>
    35b8:	00f47433          	and	s0,s0,a5
    35bc:	08088513          	addi	a0,a7,128
    35c0:	0fe00793          	li	a5,254
    35c4:	1aa7c463          	blt	a5,a0,376c <__mulsf3+0x358>
    35c8:	00345793          	srli	a5,s0,0x3
    35cc:	01c12083          	lw	ra,28(sp)
    35d0:	01812403          	lw	s0,24(sp)
    35d4:	00979793          	slli	a5,a5,0x9
    35d8:	01751513          	slli	a0,a0,0x17
    35dc:	0097d793          	srli	a5,a5,0x9
    35e0:	00f56533          	or	a0,a0,a5
    35e4:	01f81813          	slli	a6,a6,0x1f
    35e8:	01412483          	lw	s1,20(sp)
    35ec:	01012903          	lw	s2,16(sp)
    35f0:	00c12983          	lw	s3,12(sp)
    35f4:	00812a03          	lw	s4,8(sp)
    35f8:	00412a83          	lw	s5,4(sp)
    35fc:	01056533          	or	a0,a0,a6
    3600:	02010113          	addi	sp,sp,32
    3604:	00008067          	ret
    3608:	02048a63          	beqz	s1,363c <__mulsf3+0x228>
    360c:	00048513          	mv	a0,s1
    3610:	1d9000ef          	jal	ra,3fe8 <__clzsi2>
    3614:	ffb50793          	addi	a5,a0,-5
    3618:	f8a00913          	li	s2,-118
    361c:	00f494b3          	sll	s1,s1,a5
    3620:	40a90933          	sub	s2,s2,a0
    3624:	e45ff06f          	j	3468 <__mulsf3+0x54>
    3628:	0ff00913          	li	s2,255
    362c:	00300a13          	li	s4,3
    3630:	e2049ee3          	bnez	s1,346c <__mulsf3+0x58>
    3634:	00200a13          	li	s4,2
    3638:	e35ff06f          	j	346c <__mulsf3+0x58>
    363c:	00000913          	li	s2,0
    3640:	00100a13          	li	s4,1
    3644:	e29ff06f          	j	346c <__mulsf3+0x58>
    3648:	02040a63          	beqz	s0,367c <__mulsf3+0x268>
    364c:	00040513          	mv	a0,s0
    3650:	199000ef          	jal	ra,3fe8 <__clzsi2>
    3654:	ffb50793          	addi	a5,a0,-5
    3658:	00f41433          	sll	s0,s0,a5
    365c:	f8a00793          	li	a5,-118
    3660:	40a787b3          	sub	a5,a5,a0
    3664:	e39ff06f          	j	349c <__mulsf3+0x88>
    3668:	0ff00793          	li	a5,255
    366c:	00300713          	li	a4,3
    3670:	e20418e3          	bnez	s0,34a0 <__mulsf3+0x8c>
    3674:	00200713          	li	a4,2
    3678:	e29ff06f          	j	34a0 <__mulsf3+0x8c>
    367c:	00000793          	li	a5,0
    3680:	00100713          	li	a4,1
    3684:	e1dff06f          	j	34a0 <__mulsf3+0x8c>
    3688:	00100693          	li	a3,1
    368c:	00f697b3          	sll	a5,a3,a5
    3690:	5307f693          	andi	a3,a5,1328
    3694:	04069863          	bnez	a3,36e4 <__mulsf3+0x2d0>
    3698:	2407f693          	andi	a3,a5,576
    369c:	0c069063          	bnez	a3,375c <__mulsf3+0x348>
    36a0:	0887f793          	andi	a5,a5,136
    36a4:	e20786e3          	beqz	a5,34d0 <__mulsf3+0xbc>
    36a8:	000a8813          	mv	a6,s5
    36ac:	00200793          	li	a5,2
    36b0:	0af70e63          	beq	a4,a5,376c <__mulsf3+0x358>
    36b4:	00300793          	li	a5,3
    36b8:	0af70263          	beq	a4,a5,375c <__mulsf3+0x348>
    36bc:	00100793          	li	a5,1
    36c0:	ecf712e3          	bne	a4,a5,3584 <__mulsf3+0x170>
    36c4:	00000793          	li	a5,0
    36c8:	00000513          	li	a0,0
    36cc:	f01ff06f          	j	35cc <__mulsf3+0x1b8>
    36d0:	00f00693          	li	a3,15
    36d4:	08d78463          	beq	a5,a3,375c <__mulsf3+0x348>
    36d8:	00b00693          	li	a3,11
    36dc:	00098813          	mv	a6,s3
    36e0:	fcd784e3          	beq	a5,a3,36a8 <__mulsf3+0x294>
    36e4:	00048413          	mv	s0,s1
    36e8:	000a0713          	mv	a4,s4
    36ec:	fc1ff06f          	j	36ac <__mulsf3+0x298>
    36f0:	00090893          	mv	a7,s2
    36f4:	e91ff06f          	j	3584 <__mulsf3+0x170>
    36f8:	00100713          	li	a4,1
    36fc:	00050c63          	beqz	a0,3714 <__mulsf3+0x300>
    3700:	40a70733          	sub	a4,a4,a0
    3704:	01b00693          	li	a3,27
    3708:	00000793          	li	a5,0
    370c:	00000513          	li	a0,0
    3710:	eae6cee3          	blt	a3,a4,35cc <__mulsf3+0x1b8>
    3714:	09e88893          	addi	a7,a7,158
    3718:	00e45733          	srl	a4,s0,a4
    371c:	01141433          	sll	s0,s0,a7
    3720:	00803433          	snez	s0,s0
    3724:	008767b3          	or	a5,a4,s0
    3728:	0077f713          	andi	a4,a5,7
    372c:	00070a63          	beqz	a4,3740 <__mulsf3+0x32c>
    3730:	00f7f713          	andi	a4,a5,15
    3734:	00400693          	li	a3,4
    3738:	00d70463          	beq	a4,a3,3740 <__mulsf3+0x32c>
    373c:	00478793          	addi	a5,a5,4
    3740:	04000737          	lui	a4,0x4000
    3744:	00e7f733          	and	a4,a5,a4
    3748:	0037d793          	srli	a5,a5,0x3
    374c:	f6070ee3          	beqz	a4,36c8 <__mulsf3+0x2b4>
    3750:	00000793          	li	a5,0
    3754:	00100513          	li	a0,1
    3758:	e75ff06f          	j	35cc <__mulsf3+0x1b8>
    375c:	004007b7          	lui	a5,0x400
    3760:	0ff00513          	li	a0,255
    3764:	00000813          	li	a6,0
    3768:	e65ff06f          	j	35cc <__mulsf3+0x1b8>
    376c:	00000793          	li	a5,0
    3770:	0ff00513          	li	a0,255
    3774:	e59ff06f          	j	35cc <__mulsf3+0x1b8>

00003778 <__subsf3>:
    3778:	00800737          	lui	a4,0x800
    377c:	ff010113          	addi	sp,sp,-16
    3780:	01755793          	srli	a5,a0,0x17
    3784:	fff70713          	addi	a4,a4,-1 # 7fffff <__heap_start+0x7fafff>
    3788:	0175d613          	srli	a2,a1,0x17
    378c:	00912223          	sw	s1,4(sp)
    3790:	01212023          	sw	s2,0(sp)
    3794:	00a776b3          	and	a3,a4,a0
    3798:	0ff7f913          	zext.b	s2,a5
    379c:	00112623          	sw	ra,12(sp)
    37a0:	00b777b3          	and	a5,a4,a1
    37a4:	00812423          	sw	s0,8(sp)
    37a8:	0ff67613          	zext.b	a2,a2
    37ac:	0ff00813          	li	a6,255
    37b0:	01f55493          	srli	s1,a0,0x1f
    37b4:	01f5d593          	srli	a1,a1,0x1f
    37b8:	00369513          	slli	a0,a3,0x3
    37bc:	00379793          	slli	a5,a5,0x3
    37c0:	09061e63          	bne	a2,a6,385c <__subsf3+0xe4>
    37c4:	f0190713          	addi	a4,s2,-255
    37c8:	00078e63          	beqz	a5,37e4 <__subsf3+0x6c>
    37cc:	00058693          	mv	a3,a1
    37d0:	2ab49063          	bne	s1,a1,3a70 <__subsf3+0x2f8>
    37d4:	1c070463          	beqz	a4,399c <__subsf3+0x224>
    37d8:	0c091463          	bnez	s2,38a0 <__subsf3+0x128>
    37dc:	0ff00913          	li	s2,255
    37e0:	1700006f          	j	3950 <__subsf3+0x1d8>
    37e4:	0015c693          	xori	a3,a1,1
    37e8:	28d49e63          	bne	s1,a3,3a84 <__subsf3+0x30c>
    37ec:	1a070863          	beqz	a4,399c <__subsf3+0x224>
    37f0:	fe0906e3          	beqz	s2,37dc <__subsf3+0x64>
    37f4:	0ff00913          	li	s2,255
    37f8:	04000737          	lui	a4,0x4000
    37fc:	00e7f733          	and	a4,a5,a4
    3800:	40070463          	beqz	a4,3c08 <__subsf3+0x490>
    3804:	00190913          	addi	s2,s2,1
    3808:	0ff00713          	li	a4,255
    380c:	00000413          	li	s0,0
    3810:	00e90a63          	beq	s2,a4,3824 <__subsf3+0xac>
    3814:	0037d413          	srli	s0,a5,0x3
    3818:	1f8007b7          	lui	a5,0x1f800
    381c:	fff78793          	addi	a5,a5,-1 # 1f7fffff <__heap_start+0x1f7fafff>
    3820:	00f47433          	and	s0,s0,a5
    3824:	01791793          	slli	a5,s2,0x17
    3828:	7f800737          	lui	a4,0x7f800
    382c:	00941413          	slli	s0,s0,0x9
    3830:	00945413          	srli	s0,s0,0x9
    3834:	00e7f7b3          	and	a5,a5,a4
    3838:	00c12083          	lw	ra,12(sp)
    383c:	0087e7b3          	or	a5,a5,s0
    3840:	00812403          	lw	s0,8(sp)
    3844:	01f49513          	slli	a0,s1,0x1f
    3848:	00012903          	lw	s2,0(sp)
    384c:	00412483          	lw	s1,4(sp)
    3850:	00a7e533          	or	a0,a5,a0
    3854:	01010113          	addi	sp,sp,16
    3858:	00008067          	ret
    385c:	0015c693          	xori	a3,a1,1
    3860:	40c90733          	sub	a4,s2,a2
    3864:	18d49a63          	bne	s1,a3,39f8 <__subsf3+0x280>
    3868:	0ce05663          	blez	a4,3934 <__subsf3+0x1bc>
    386c:	02061e63          	bnez	a2,38a8 <__subsf3+0x130>
    3870:	38078463          	beqz	a5,3bf8 <__subsf3+0x480>
    3874:	fff70693          	addi	a3,a4,-1 # 7f7fffff <__heap_start+0x7f7fafff>
    3878:	02069063          	bnez	a3,3898 <__subsf3+0x120>
    387c:	00a787b3          	add	a5,a5,a0
    3880:	04000737          	lui	a4,0x4000
    3884:	00e7f733          	and	a4,a5,a4
    3888:	00200913          	li	s2,2
    388c:	08071663          	bnez	a4,3918 <__subsf3+0x1a0>
    3890:	00100913          	li	s2,1
    3894:	0300006f          	j	38c4 <__subsf3+0x14c>
    3898:	03071063          	bne	a4,a6,38b8 <__subsf3+0x140>
    389c:	00050793          	mv	a5,a0
    38a0:	0ff00913          	li	s2,255
    38a4:	0200006f          	j	38c4 <__subsf3+0x14c>
    38a8:	35090c63          	beq	s2,a6,3c00 <__subsf3+0x488>
    38ac:	040006b7          	lui	a3,0x4000
    38b0:	00d7e7b3          	or	a5,a5,a3
    38b4:	00070693          	mv	a3,a4
    38b8:	01b00713          	li	a4,27
    38bc:	02d75263          	bge	a4,a3,38e0 <__subsf3+0x168>
    38c0:	00150793          	addi	a5,a0,1
    38c4:	0077f713          	andi	a4,a5,7
    38c8:	f20708e3          	beqz	a4,37f8 <__subsf3+0x80>
    38cc:	00f7f713          	andi	a4,a5,15
    38d0:	00400693          	li	a3,4
    38d4:	f2d702e3          	beq	a4,a3,37f8 <__subsf3+0x80>
    38d8:	00478793          	addi	a5,a5,4
    38dc:	f1dff06f          	j	37f8 <__subsf3+0x80>
    38e0:	02000713          	li	a4,32
    38e4:	40d70733          	sub	a4,a4,a3
    38e8:	00e79733          	sll	a4,a5,a4
    38ec:	00d7d633          	srl	a2,a5,a3
    38f0:	00e03733          	snez	a4,a4
    38f4:	00e667b3          	or	a5,a2,a4
    38f8:	00a787b3          	add	a5,a5,a0
    38fc:	04000737          	lui	a4,0x4000
    3900:	00e7f733          	and	a4,a5,a4
    3904:	fc0700e3          	beqz	a4,38c4 <__subsf3+0x14c>
    3908:	00190913          	addi	s2,s2,1
    390c:	0ff00713          	li	a4,255
    3910:	00000413          	li	s0,0
    3914:	f0e908e3          	beq	s2,a4,3824 <__subsf3+0xac>
    3918:	7e000737          	lui	a4,0x7e000
    391c:	0017f693          	andi	a3,a5,1
    3920:	fff70713          	addi	a4,a4,-1 # 7dffffff <__heap_start+0x7dffafff>
    3924:	0017d793          	srli	a5,a5,0x1
    3928:	00e7f7b3          	and	a5,a5,a4
    392c:	00d7e7b3          	or	a5,a5,a3
    3930:	f95ff06f          	j	38c4 <__subsf3+0x14c>
    3934:	06070463          	beqz	a4,399c <__subsf3+0x224>
    3938:	412606b3          	sub	a3,a2,s2
    393c:	00090863          	beqz	s2,394c <__subsf3+0x1d4>
    3940:	04000737          	lui	a4,0x4000
    3944:	00e56533          	or	a0,a0,a4
    3948:	01c0006f          	j	3964 <__subsf3+0x1ec>
    394c:	00068913          	mv	s2,a3
    3950:	f6050ae3          	beqz	a0,38c4 <__subsf3+0x14c>
    3954:	fff90693          	addi	a3,s2,-1
    3958:	f20682e3          	beqz	a3,387c <__subsf3+0x104>
    395c:	0ff00713          	li	a4,255
    3960:	f6e902e3          	beq	s2,a4,38c4 <__subsf3+0x14c>
    3964:	01b00713          	li	a4,27
    3968:	00d75863          	bge	a4,a3,3978 <__subsf3+0x200>
    396c:	00178793          	addi	a5,a5,1
    3970:	00060913          	mv	s2,a2
    3974:	f51ff06f          	j	38c4 <__subsf3+0x14c>
    3978:	02000713          	li	a4,32
    397c:	40d70733          	sub	a4,a4,a3
    3980:	00e51733          	sll	a4,a0,a4
    3984:	00d555b3          	srl	a1,a0,a3
    3988:	00e03733          	snez	a4,a4
    398c:	00e5e733          	or	a4,a1,a4
    3990:	00e787b3          	add	a5,a5,a4
    3994:	00060913          	mv	s2,a2
    3998:	f65ff06f          	j	38fc <__subsf3+0x184>
    399c:	00190713          	addi	a4,s2,1
    39a0:	0fe77693          	andi	a3,a4,254
    39a4:	02069e63          	bnez	a3,39e0 <__subsf3+0x268>
    39a8:	02091663          	bnez	s2,39d4 <__subsf3+0x25c>
    39ac:	f0050ce3          	beqz	a0,38c4 <__subsf3+0x14c>
    39b0:	24078863          	beqz	a5,3c00 <__subsf3+0x488>
    39b4:	00a787b3          	add	a5,a5,a0
    39b8:	04000737          	lui	a4,0x4000
    39bc:	00e7f733          	and	a4,a5,a4
    39c0:	f00702e3          	beqz	a4,38c4 <__subsf3+0x14c>
    39c4:	fc000737          	lui	a4,0xfc000
    39c8:	fff70713          	addi	a4,a4,-1 # fbffffff <__heap_start+0xfbffafff>
    39cc:	00e7f7b3          	and	a5,a5,a4
    39d0:	ec1ff06f          	j	3890 <__subsf3+0x118>
    39d4:	ec0506e3          	beqz	a0,38a0 <__subsf3+0x128>
    39d8:	ec0782e3          	beqz	a5,389c <__subsf3+0x124>
    39dc:	1980006f          	j	3b74 <__subsf3+0x3fc>
    39e0:	0ff00693          	li	a3,255
    39e4:	22d70e63          	beq	a4,a3,3c20 <__subsf3+0x4a8>
    39e8:	00f507b3          	add	a5,a0,a5
    39ec:	0017d793          	srli	a5,a5,0x1
    39f0:	00070913          	mv	s2,a4
    39f4:	ed1ff06f          	j	38c4 <__subsf3+0x14c>
    39f8:	0ae05063          	blez	a4,3a98 <__subsf3+0x320>
    39fc:	06061063          	bnez	a2,3a5c <__subsf3+0x2e4>
    3a00:	1e078c63          	beqz	a5,3bf8 <__subsf3+0x480>
    3a04:	fff70693          	addi	a3,a4,-1
    3a08:	00069863          	bnez	a3,3a18 <__subsf3+0x2a0>
    3a0c:	40f507b3          	sub	a5,a0,a5
    3a10:	00100913          	li	s2,1
    3a14:	0300006f          	j	3a44 <__subsf3+0x2cc>
    3a18:	e90702e3          	beq	a4,a6,389c <__subsf3+0x124>
    3a1c:	01b00613          	li	a2,27
    3a20:	00100713          	li	a4,1
    3a24:	00d64e63          	blt	a2,a3,3a40 <__subsf3+0x2c8>
    3a28:	02000713          	li	a4,32
    3a2c:	40d70733          	sub	a4,a4,a3
    3a30:	00e79733          	sll	a4,a5,a4
    3a34:	00d7d633          	srl	a2,a5,a3
    3a38:	00e03733          	snez	a4,a4
    3a3c:	00e66733          	or	a4,a2,a4
    3a40:	40e507b3          	sub	a5,a0,a4
    3a44:	04000437          	lui	s0,0x4000
    3a48:	0087f733          	and	a4,a5,s0
    3a4c:	e6070ce3          	beqz	a4,38c4 <__subsf3+0x14c>
    3a50:	fff40413          	addi	s0,s0,-1 # 3ffffff <__heap_start+0x3ffafff>
    3a54:	0087f433          	and	s0,a5,s0
    3a58:	1440006f          	j	3b9c <__subsf3+0x424>
    3a5c:	1b090263          	beq	s2,a6,3c00 <__subsf3+0x488>
    3a60:	040006b7          	lui	a3,0x4000
    3a64:	00d7e7b3          	or	a5,a5,a3
    3a68:	00070693          	mv	a3,a4
    3a6c:	fb1ff06f          	j	3a1c <__subsf3+0x2a4>
    3a70:	0a070663          	beqz	a4,3b1c <__subsf3+0x3a4>
    3a74:	04090663          	beqz	s2,3ac0 <__subsf3+0x348>
    3a78:	0ff00913          	li	s2,255
    3a7c:	00058493          	mv	s1,a1
    3a80:	e45ff06f          	j	38c4 <__subsf3+0x14c>
    3a84:	08070c63          	beqz	a4,3b1c <__subsf3+0x3a4>
    3a88:	04090263          	beqz	s2,3acc <__subsf3+0x354>
    3a8c:	0ff00913          	li	s2,255
    3a90:	00068493          	mv	s1,a3
    3a94:	d65ff06f          	j	37f8 <__subsf3+0x80>
    3a98:	08070263          	beqz	a4,3b1c <__subsf3+0x3a4>
    3a9c:	412605b3          	sub	a1,a2,s2
    3aa0:	06091663          	bnez	s2,3b0c <__subsf3+0x394>
    3aa4:	00068493          	mv	s1,a3
    3aa8:	00058913          	mv	s2,a1
    3aac:	e0050ce3          	beqz	a0,38c4 <__subsf3+0x14c>
    3ab0:	fff90593          	addi	a1,s2,-1
    3ab4:	02059063          	bnez	a1,3ad4 <__subsf3+0x35c>
    3ab8:	40a787b3          	sub	a5,a5,a0
    3abc:	f55ff06f          	j	3a10 <__subsf3+0x298>
    3ac0:	00058493          	mv	s1,a1
    3ac4:	0ff00913          	li	s2,255
    3ac8:	fe5ff06f          	j	3aac <__subsf3+0x334>
    3acc:	00068493          	mv	s1,a3
    3ad0:	ff5ff06f          	j	3ac4 <__subsf3+0x34c>
    3ad4:	0ff00713          	li	a4,255
    3ad8:	dee906e3          	beq	s2,a4,38c4 <__subsf3+0x14c>
    3adc:	01b00693          	li	a3,27
    3ae0:	00100713          	li	a4,1
    3ae4:	00b6ce63          	blt	a3,a1,3b00 <__subsf3+0x388>
    3ae8:	02000713          	li	a4,32
    3aec:	40b70733          	sub	a4,a4,a1
    3af0:	00e51733          	sll	a4,a0,a4
    3af4:	00b556b3          	srl	a3,a0,a1
    3af8:	00e03733          	snez	a4,a4
    3afc:	00e6e733          	or	a4,a3,a4
    3b00:	40e787b3          	sub	a5,a5,a4
    3b04:	00060913          	mv	s2,a2
    3b08:	f3dff06f          	j	3a44 <__subsf3+0x2cc>
    3b0c:	04000737          	lui	a4,0x4000
    3b10:	00e56533          	or	a0,a0,a4
    3b14:	00068493          	mv	s1,a3
    3b18:	fc5ff06f          	j	3adc <__subsf3+0x364>
    3b1c:	00190713          	addi	a4,s2,1
    3b20:	0fe77713          	andi	a4,a4,254
    3b24:	06071063          	bnez	a4,3b84 <__subsf3+0x40c>
    3b28:	04091063          	bnez	s2,3b68 <__subsf3+0x3f0>
    3b2c:	00051863          	bnez	a0,3b3c <__subsf3+0x3c4>
    3b30:	0e078e63          	beqz	a5,3c2c <__subsf3+0x4b4>
    3b34:	00068493          	mv	s1,a3
    3b38:	d8dff06f          	j	38c4 <__subsf3+0x14c>
    3b3c:	0c078263          	beqz	a5,3c00 <__subsf3+0x488>
    3b40:	40f50433          	sub	s0,a0,a5
    3b44:	04000737          	lui	a4,0x4000
    3b48:	00e47733          	and	a4,s0,a4
    3b4c:	00070663          	beqz	a4,3b58 <__subsf3+0x3e0>
    3b50:	40a787b3          	sub	a5,a5,a0
    3b54:	fe1ff06f          	j	3b34 <__subsf3+0x3bc>
    3b58:	00040793          	mv	a5,s0
    3b5c:	d60414e3          	bnez	s0,38c4 <__subsf3+0x14c>
    3b60:	00000493          	li	s1,0
    3b64:	cc1ff06f          	j	3824 <__subsf3+0xac>
    3b68:	e60518e3          	bnez	a0,39d8 <__subsf3+0x260>
    3b6c:	00068493          	mv	s1,a3
    3b70:	d20798e3          	bnez	a5,38a0 <__subsf3+0x128>
    3b74:	00000493          	li	s1,0
    3b78:	0ff00913          	li	s2,255
    3b7c:	00400437          	lui	s0,0x400
    3b80:	ca5ff06f          	j	3824 <__subsf3+0xac>
    3b84:	40f50433          	sub	s0,a0,a5
    3b88:	04000737          	lui	a4,0x4000
    3b8c:	00e47733          	and	a4,s0,a4
    3b90:	04070463          	beqz	a4,3bd8 <__subsf3+0x460>
    3b94:	40a78433          	sub	s0,a5,a0
    3b98:	00068493          	mv	s1,a3
    3b9c:	00040513          	mv	a0,s0
    3ba0:	448000ef          	jal	ra,3fe8 <__clzsi2>
    3ba4:	ffb50513          	addi	a0,a0,-5
    3ba8:	00a41433          	sll	s0,s0,a0
    3bac:	03254c63          	blt	a0,s2,3be4 <__subsf3+0x46c>
    3bb0:	41250533          	sub	a0,a0,s2
    3bb4:	00150513          	addi	a0,a0,1
    3bb8:	02000713          	li	a4,32
    3bbc:	40a70733          	sub	a4,a4,a0
    3bc0:	00a457b3          	srl	a5,s0,a0
    3bc4:	00e41433          	sll	s0,s0,a4
    3bc8:	00803433          	snez	s0,s0
    3bcc:	0087e7b3          	or	a5,a5,s0
    3bd0:	00000913          	li	s2,0
    3bd4:	cf1ff06f          	j	38c4 <__subsf3+0x14c>
    3bd8:	fc0412e3          	bnez	s0,3b9c <__subsf3+0x424>
    3bdc:	00000913          	li	s2,0
    3be0:	f81ff06f          	j	3b60 <__subsf3+0x3e8>
    3be4:	fc0007b7          	lui	a5,0xfc000
    3be8:	fff78793          	addi	a5,a5,-1 # fbffffff <__heap_start+0xfbffafff>
    3bec:	40a90933          	sub	s2,s2,a0
    3bf0:	00f477b3          	and	a5,s0,a5
    3bf4:	cd1ff06f          	j	38c4 <__subsf3+0x14c>
    3bf8:	00050793          	mv	a5,a0
    3bfc:	df5ff06f          	j	39f0 <__subsf3+0x278>
    3c00:	00050793          	mv	a5,a0
    3c04:	cc1ff06f          	j	38c4 <__subsf3+0x14c>
    3c08:	0037d413          	srli	s0,a5,0x3
    3c0c:	0ff00793          	li	a5,255
    3c10:	c0f91ae3          	bne	s2,a5,3824 <__subsf3+0xac>
    3c14:	c00408e3          	beqz	s0,3824 <__subsf3+0xac>
    3c18:	00400437          	lui	s0,0x400
    3c1c:	f45ff06f          	j	3b60 <__subsf3+0x3e8>
    3c20:	0ff00913          	li	s2,255
    3c24:	00000413          	li	s0,0
    3c28:	bfdff06f          	j	3824 <__subsf3+0xac>
    3c2c:	00000413          	li	s0,0
    3c30:	f31ff06f          	j	3b60 <__subsf3+0x3e8>

00003c34 <__fixsfsi>:
    3c34:	00800637          	lui	a2,0x800
    3c38:	01755713          	srli	a4,a0,0x17
    3c3c:	fff60793          	addi	a5,a2,-1 # 7fffff <__heap_start+0x7fafff>
    3c40:	0ff77713          	zext.b	a4,a4
    3c44:	07e00593          	li	a1,126
    3c48:	00a7f7b3          	and	a5,a5,a0
    3c4c:	01f55693          	srli	a3,a0,0x1f
    3c50:	04e5d663          	bge	a1,a4,3c9c <__fixsfsi+0x68>
    3c54:	09d00593          	li	a1,157
    3c58:	00e5da63          	bge	a1,a4,3c6c <__fixsfsi+0x38>
    3c5c:	80000537          	lui	a0,0x80000
    3c60:	fff54513          	not	a0,a0
    3c64:	00a68533          	add	a0,a3,a0
    3c68:	00008067          	ret
    3c6c:	00c7e533          	or	a0,a5,a2
    3c70:	09500793          	li	a5,149
    3c74:	00e7dc63          	bge	a5,a4,3c8c <__fixsfsi+0x58>
    3c78:	f6a70713          	addi	a4,a4,-150 # 3ffff6a <__heap_start+0x3ffaf6a>
    3c7c:	00e51533          	sll	a0,a0,a4
    3c80:	02068063          	beqz	a3,3ca0 <__fixsfsi+0x6c>
    3c84:	40a00533          	neg	a0,a0
    3c88:	00008067          	ret
    3c8c:	09600793          	li	a5,150
    3c90:	40e787b3          	sub	a5,a5,a4
    3c94:	00f55533          	srl	a0,a0,a5
    3c98:	fe9ff06f          	j	3c80 <__fixsfsi+0x4c>
    3c9c:	00000513          	li	a0,0
    3ca0:	00008067          	ret

00003ca4 <__extendsfdf2>:
    3ca4:	01755713          	srli	a4,a0,0x17
    3ca8:	0ff77713          	zext.b	a4,a4
    3cac:	ff010113          	addi	sp,sp,-16
    3cb0:	00170793          	addi	a5,a4,1
    3cb4:	00812423          	sw	s0,8(sp)
    3cb8:	00912223          	sw	s1,4(sp)
    3cbc:	00951413          	slli	s0,a0,0x9
    3cc0:	00112623          	sw	ra,12(sp)
    3cc4:	0fe7f793          	andi	a5,a5,254
    3cc8:	00945413          	srli	s0,s0,0x9
    3ccc:	01f55493          	srli	s1,a0,0x1f
    3cd0:	04078263          	beqz	a5,3d14 <__extendsfdf2+0x70>
    3cd4:	00345793          	srli	a5,s0,0x3
    3cd8:	38070713          	addi	a4,a4,896
    3cdc:	01d41413          	slli	s0,s0,0x1d
    3ce0:	00c79793          	slli	a5,a5,0xc
    3ce4:	00c7d793          	srli	a5,a5,0xc
    3ce8:	01471713          	slli	a4,a4,0x14
    3cec:	01f49513          	slli	a0,s1,0x1f
    3cf0:	00f76733          	or	a4,a4,a5
    3cf4:	00c12083          	lw	ra,12(sp)
    3cf8:	00a767b3          	or	a5,a4,a0
    3cfc:	00040513          	mv	a0,s0
    3d00:	00812403          	lw	s0,8(sp)
    3d04:	00412483          	lw	s1,4(sp)
    3d08:	00078593          	mv	a1,a5
    3d0c:	01010113          	addi	sp,sp,16
    3d10:	00008067          	ret
    3d14:	04071663          	bnez	a4,3d60 <__extendsfdf2+0xbc>
    3d18:	00000793          	li	a5,0
    3d1c:	fc0402e3          	beqz	s0,3ce0 <__extendsfdf2+0x3c>
    3d20:	00040513          	mv	a0,s0
    3d24:	2c4000ef          	jal	ra,3fe8 <__clzsi2>
    3d28:	00a00793          	li	a5,10
    3d2c:	02a7c263          	blt	a5,a0,3d50 <__extendsfdf2+0xac>
    3d30:	00b00793          	li	a5,11
    3d34:	40a787b3          	sub	a5,a5,a0
    3d38:	01550713          	addi	a4,a0,21 # 80000015 <__heap_start+0x7fffb015>
    3d3c:	00f457b3          	srl	a5,s0,a5
    3d40:	00e41433          	sll	s0,s0,a4
    3d44:	38900713          	li	a4,905
    3d48:	40a70733          	sub	a4,a4,a0
    3d4c:	f95ff06f          	j	3ce0 <__extendsfdf2+0x3c>
    3d50:	ff550793          	addi	a5,a0,-11
    3d54:	00f417b3          	sll	a5,s0,a5
    3d58:	00000413          	li	s0,0
    3d5c:	fe9ff06f          	j	3d44 <__extendsfdf2+0xa0>
    3d60:	00000793          	li	a5,0
    3d64:	00040a63          	beqz	s0,3d78 <__extendsfdf2+0xd4>
    3d68:	00345793          	srli	a5,s0,0x3
    3d6c:	00080737          	lui	a4,0x80
    3d70:	01d41413          	slli	s0,s0,0x1d
    3d74:	00e7e7b3          	or	a5,a5,a4
    3d78:	7ff00713          	li	a4,2047
    3d7c:	f65ff06f          	j	3ce0 <__extendsfdf2+0x3c>

00003d80 <__truncdfsf2>:
    3d80:	00c59713          	slli	a4,a1,0xc
    3d84:	0145d813          	srli	a6,a1,0x14
    3d88:	00975713          	srli	a4,a4,0x9
    3d8c:	7ff87813          	andi	a6,a6,2047
    3d90:	01d55793          	srli	a5,a0,0x1d
    3d94:	00e7e7b3          	or	a5,a5,a4
    3d98:	00180713          	addi	a4,a6,1
    3d9c:	7fe77713          	andi	a4,a4,2046
    3da0:	01f5d593          	srli	a1,a1,0x1f
    3da4:	00351613          	slli	a2,a0,0x3
    3da8:	0e070063          	beqz	a4,3e88 <__truncdfsf2+0x108>
    3dac:	c8080693          	addi	a3,a6,-896
    3db0:	0fe00713          	li	a4,254
    3db4:	14d74663          	blt	a4,a3,3f00 <__truncdfsf2+0x180>
    3db8:	0ad04463          	bgtz	a3,3e60 <__truncdfsf2+0xe0>
    3dbc:	fe900713          	li	a4,-23
    3dc0:	14e6c463          	blt	a3,a4,3f08 <__truncdfsf2+0x188>
    3dc4:	00800537          	lui	a0,0x800
    3dc8:	01e00713          	li	a4,30
    3dcc:	00a7e533          	or	a0,a5,a0
    3dd0:	40d70733          	sub	a4,a4,a3
    3dd4:	01f00793          	li	a5,31
    3dd8:	04e7c663          	blt	a5,a4,3e24 <__truncdfsf2+0xa4>
    3ddc:	c8280813          	addi	a6,a6,-894
    3de0:	00e65733          	srl	a4,a2,a4
    3de4:	01061633          	sll	a2,a2,a6
    3de8:	00c03633          	snez	a2,a2
    3dec:	01051533          	sll	a0,a0,a6
    3df0:	00a66633          	or	a2,a2,a0
    3df4:	00c76733          	or	a4,a4,a2
    3df8:	00777793          	andi	a5,a4,7
    3dfc:	0a079663          	bnez	a5,3ea8 <__truncdfsf2+0x128>
    3e00:	00375793          	srli	a5,a4,0x3
    3e04:	00000693          	li	a3,0
    3e08:	00979793          	slli	a5,a5,0x9
    3e0c:	0097d793          	srli	a5,a5,0x9
    3e10:	01769693          	slli	a3,a3,0x17
    3e14:	00f6e6b3          	or	a3,a3,a5
    3e18:	01f59513          	slli	a0,a1,0x1f
    3e1c:	00a6e533          	or	a0,a3,a0
    3e20:	00008067          	ret
    3e24:	ffe00793          	li	a5,-2
    3e28:	40d787b3          	sub	a5,a5,a3
    3e2c:	02000893          	li	a7,32
    3e30:	00f557b3          	srl	a5,a0,a5
    3e34:	00000693          	li	a3,0
    3e38:	01170663          	beq	a4,a7,3e44 <__truncdfsf2+0xc4>
    3e3c:	ca280813          	addi	a6,a6,-862
    3e40:	010516b3          	sll	a3,a0,a6
    3e44:	00c6e6b3          	or	a3,a3,a2
    3e48:	00d036b3          	snez	a3,a3
    3e4c:	00d7e7b3          	or	a5,a5,a3
    3e50:	0077f713          	andi	a4,a5,7
    3e54:	06071463          	bnez	a4,3ebc <__truncdfsf2+0x13c>
    3e58:	0037d793          	srli	a5,a5,0x3
    3e5c:	fa9ff06f          	j	3e04 <__truncdfsf2+0x84>
    3e60:	00651713          	slli	a4,a0,0x6
    3e64:	00379793          	slli	a5,a5,0x3
    3e68:	00e03733          	snez	a4,a4
    3e6c:	00f76733          	or	a4,a4,a5
    3e70:	01d65613          	srli	a2,a2,0x1d
    3e74:	00c76733          	or	a4,a4,a2
    3e78:	00777793          	andi	a5,a4,7
    3e7c:	04079a63          	bnez	a5,3ed0 <__truncdfsf2+0x150>
    3e80:	00375793          	srli	a5,a4,0x3
    3e84:	f85ff06f          	j	3e08 <__truncdfsf2+0x88>
    3e88:	08080063          	beqz	a6,3f08 <__truncdfsf2+0x188>
    3e8c:	00c7e7b3          	or	a5,a5,a2
    3e90:	0ff00693          	li	a3,255
    3e94:	f6078ae3          	beqz	a5,3e08 <__truncdfsf2+0x88>
    3e98:	00000593          	li	a1,0
    3e9c:	0ff00693          	li	a3,255
    3ea0:	004007b7          	lui	a5,0x400
    3ea4:	f65ff06f          	j	3e08 <__truncdfsf2+0x88>
    3ea8:	00f77793          	andi	a5,a4,15
    3eac:	00400693          	li	a3,4
    3eb0:	f4d788e3          	beq	a5,a3,3e00 <__truncdfsf2+0x80>
    3eb4:	00000693          	li	a3,0
    3eb8:	0280006f          	j	3ee0 <__truncdfsf2+0x160>
    3ebc:	00f7f713          	andi	a4,a5,15
    3ec0:	00400693          	li	a3,4
    3ec4:	f8d70ae3          	beq	a4,a3,3e58 <__truncdfsf2+0xd8>
    3ec8:	00478793          	addi	a5,a5,4 # 400004 <__heap_start+0x3fb004>
    3ecc:	f8dff06f          	j	3e58 <__truncdfsf2+0xd8>
    3ed0:	00f77613          	andi	a2,a4,15
    3ed4:	00400513          	li	a0,4
    3ed8:	00375793          	srli	a5,a4,0x3
    3edc:	f2a606e3          	beq	a2,a0,3e08 <__truncdfsf2+0x88>
    3ee0:	00470713          	addi	a4,a4,4 # 80004 <__heap_start+0x7b004>
    3ee4:	04000637          	lui	a2,0x4000
    3ee8:	00c77633          	and	a2,a4,a2
    3eec:	00375793          	srli	a5,a4,0x3
    3ef0:	f0060ce3          	beqz	a2,3e08 <__truncdfsf2+0x88>
    3ef4:	00168693          	addi	a3,a3,1 # 4000001 <__heap_start+0x3ffb001>
    3ef8:	00000793          	li	a5,0
    3efc:	f0dff06f          	j	3e08 <__truncdfsf2+0x88>
    3f00:	0ff00693          	li	a3,255
    3f04:	ff5ff06f          	j	3ef8 <__truncdfsf2+0x178>
    3f08:	00000693          	li	a3,0
    3f0c:	fedff06f          	j	3ef8 <__truncdfsf2+0x178>

00003f10 <__mulsi3>:
    3f10:	00050613          	mv	a2,a0
    3f14:	00000513          	li	a0,0
    3f18:	0015f693          	andi	a3,a1,1
    3f1c:	00068463          	beqz	a3,3f24 <__mulsi3+0x14>
    3f20:	00c50533          	add	a0,a0,a2
    3f24:	0015d593          	srli	a1,a1,0x1
    3f28:	00161613          	slli	a2,a2,0x1
    3f2c:	fe0596e3          	bnez	a1,3f18 <__mulsi3+0x8>
    3f30:	00008067          	ret

00003f34 <__divsi3>:
    3f34:	06054063          	bltz	a0,3f94 <__umodsi3+0x10>
    3f38:	0605c663          	bltz	a1,3fa4 <__umodsi3+0x20>

00003f3c <__hidden___udivsi3>:
    3f3c:	00058613          	mv	a2,a1
    3f40:	00050593          	mv	a1,a0
    3f44:	fff00513          	li	a0,-1
    3f48:	02060c63          	beqz	a2,3f80 <__hidden___udivsi3+0x44>
    3f4c:	00100693          	li	a3,1
    3f50:	00b67a63          	bgeu	a2,a1,3f64 <__hidden___udivsi3+0x28>
    3f54:	00c05863          	blez	a2,3f64 <__hidden___udivsi3+0x28>
    3f58:	00161613          	slli	a2,a2,0x1
    3f5c:	00169693          	slli	a3,a3,0x1
    3f60:	feb66ae3          	bltu	a2,a1,3f54 <__hidden___udivsi3+0x18>
    3f64:	00000513          	li	a0,0
    3f68:	00c5e663          	bltu	a1,a2,3f74 <__hidden___udivsi3+0x38>
    3f6c:	40c585b3          	sub	a1,a1,a2
    3f70:	00d56533          	or	a0,a0,a3
    3f74:	0016d693          	srli	a3,a3,0x1
    3f78:	00165613          	srli	a2,a2,0x1
    3f7c:	fe0696e3          	bnez	a3,3f68 <__hidden___udivsi3+0x2c>
    3f80:	00008067          	ret

00003f84 <__umodsi3>:
    3f84:	00008293          	mv	t0,ra
    3f88:	fb5ff0ef          	jal	ra,3f3c <__hidden___udivsi3>
    3f8c:	00058513          	mv	a0,a1
    3f90:	00028067          	jr	t0
    3f94:	40a00533          	neg	a0,a0
    3f98:	00b04863          	bgtz	a1,3fa8 <__umodsi3+0x24>
    3f9c:	40b005b3          	neg	a1,a1
    3fa0:	f9dff06f          	j	3f3c <__hidden___udivsi3>
    3fa4:	40b005b3          	neg	a1,a1
    3fa8:	00008293          	mv	t0,ra
    3fac:	f91ff0ef          	jal	ra,3f3c <__hidden___udivsi3>
    3fb0:	40a00533          	neg	a0,a0
    3fb4:	00028067          	jr	t0

00003fb8 <__modsi3>:
    3fb8:	00008293          	mv	t0,ra
    3fbc:	0005ca63          	bltz	a1,3fd0 <__modsi3+0x18>
    3fc0:	00054c63          	bltz	a0,3fd8 <__modsi3+0x20>
    3fc4:	f79ff0ef          	jal	ra,3f3c <__hidden___udivsi3>
    3fc8:	00058513          	mv	a0,a1
    3fcc:	00028067          	jr	t0
    3fd0:	40b005b3          	neg	a1,a1
    3fd4:	fe0558e3          	bgez	a0,3fc4 <__modsi3+0xc>
    3fd8:	40a00533          	neg	a0,a0
    3fdc:	f61ff0ef          	jal	ra,3f3c <__hidden___udivsi3>
    3fe0:	40b00533          	neg	a0,a1
    3fe4:	00028067          	jr	t0

00003fe8 <__clzsi2>:
    3fe8:	000107b7          	lui	a5,0x10
    3fec:	02f57a63          	bgeu	a0,a5,4020 <__clzsi2+0x38>
    3ff0:	10053793          	sltiu	a5,a0,256
    3ff4:	0017c793          	xori	a5,a5,1
    3ff8:	00379793          	slli	a5,a5,0x3
    3ffc:	00004737          	lui	a4,0x4
    4000:	02000693          	li	a3,32
    4004:	40f686b3          	sub	a3,a3,a5
    4008:	00f55533          	srl	a0,a0,a5
    400c:	72470793          	addi	a5,a4,1828 # 4724 <__clz_tab>
    4010:	00a787b3          	add	a5,a5,a0
    4014:	0007c503          	lbu	a0,0(a5) # 10000 <__heap_start+0xb000>
    4018:	40a68533          	sub	a0,a3,a0
    401c:	00008067          	ret
    4020:	01000737          	lui	a4,0x1000
    4024:	01000793          	li	a5,16
    4028:	fce56ae3          	bltu	a0,a4,3ffc <__clzsi2+0x14>
    402c:	01800793          	li	a5,24
    4030:	fcdff06f          	j	3ffc <__clzsi2+0x14>

Disassembly of section .text.startup:

00004034 <main>:
    4034:	fa010113          	addi	sp,sp,-96
    4038:	000057b7          	lui	a5,0x5
    403c:	03812c23          	sw	s8,56(sp)
    4040:	8487ac03          	lw	s8,-1976(a5) # 4848 <__clz_tab+0x124>
    4044:	000057b7          	lui	a5,0x5
    4048:	8507a783          	lw	a5,-1968(a5) # 4850 <__clz_tab+0x12c>
    404c:	03a12823          	sw	s10,48(sp)
    4050:	03b12623          	sw	s11,44(sp)
    4054:	00f12a23          	sw	a5,20(sp)
    4058:	000057b7          	lui	a5,0x5
    405c:	8547a783          	lw	a5,-1964(a5) # 4854 <__clz_tab+0x130>
    4060:	04812c23          	sw	s0,88(sp)
    4064:	04912a23          	sw	s1,84(sp)
    4068:	00f12c23          	sw	a5,24(sp)
    406c:	000057b7          	lui	a5,0x5
    4070:	8607ad03          	lw	s10,-1952(a5) # 4860 <__clz_tab+0x13c>
    4074:	8647ad83          	lw	s11,-1948(a5)
    4078:	04112e23          	sw	ra,92(sp)
    407c:	05212823          	sw	s2,80(sp)
    4080:	05312623          	sw	s3,76(sp)
    4084:	05412423          	sw	s4,72(sp)
    4088:	05512223          	sw	s5,68(sp)
    408c:	05612023          	sw	s6,64(sp)
    4090:	03712e23          	sw	s7,60(sp)
    4094:	03912a23          	sw	s9,52(sp)
    4098:	03d00413          	li	s0,61
    409c:	000c0493          	mv	s1,s8
    40a0:	00048593          	mv	a1,s1
    40a4:	00048513          	mv	a0,s1
    40a8:	b6cff0ef          	jal	ra,3414 <__mulsf3>
    40ac:	00050b13          	mv	s6,a0
    40b0:	00000593          	li	a1,0
    40b4:	00048513          	mv	a0,s1
    40b8:	b5cff0ef          	jal	ra,3414 <__mulsf3>
    40bc:	00048593          	mv	a1,s1
    40c0:	b54ff0ef          	jal	ra,3414 <__mulsf3>
    40c4:	00048593          	mv	a1,s1
    40c8:	b4cff0ef          	jal	ra,3414 <__mulsf3>
    40cc:	000057b7          	lui	a5,0x5
    40d0:	8447ac83          	lw	s9,-1980(a5) # 4844 <__clz_tab+0x120>
    40d4:	07900c13          	li	s8,121
    40d8:	00a12023          	sw	a0,0(sp)
    40dc:	000c8913          	mv	s2,s9
    40e0:	00812e23          	sw	s0,28(sp)
    40e4:	000c0c93          	mv	s9,s8
    40e8:	000b0c13          	mv	s8,s6
    40ec:	02c0006f          	j	4118 <main+0xe4>
    40f0:	000307b7          	lui	a5,0x30
    40f4:	05f00713          	li	a4,95
    40f8:	00e78023          	sb	a4,0(a5) # 30000 <__heap_start+0x2b000>
    40fc:	000057b7          	lui	a5,0x5
    4100:	8587a583          	lw	a1,-1960(a5) # 4858 <__clz_tab+0x134>
    4104:	00090513          	mv	a0,s2
    4108:	fffc8c93          	addi	s9,s9,-1
    410c:	8e5fe0ef          	jal	ra,29f0 <__addsf3>
    4110:	00050913          	mv	s2,a0
    4114:	520c8663          	beqz	s9,4640 <main+0x60c>
    4118:	00090593          	mv	a1,s2
    411c:	00090513          	mv	a0,s2
    4120:	af4ff0ef          	jal	ra,3414 <__mulsf3>
    4124:	00000593          	li	a1,0
    4128:	00050993          	mv	s3,a0
    412c:	8c5fe0ef          	jal	ra,29f0 <__addsf3>
    4130:	000c0593          	mv	a1,s8
    4134:	8bdfe0ef          	jal	ra,29f0 <__addsf3>
    4138:	000057b7          	lui	a5,0x5
    413c:	8347a583          	lw	a1,-1996(a5) # 4834 <__clz_tab+0x110>
    4140:	e38ff0ef          	jal	ra,3778 <__subsf3>
    4144:	00050413          	mv	s0,a0
    4148:	00048593          	mv	a1,s1
    414c:	00098513          	mv	a0,s3
    4150:	ac4ff0ef          	jal	ra,3414 <__mulsf3>
    4154:	00048593          	mv	a1,s1
    4158:	abcff0ef          	jal	ra,3414 <__mulsf3>
    415c:	00048593          	mv	a1,s1
    4160:	ab4ff0ef          	jal	ra,3414 <__mulsf3>
    4164:	00050a93          	mv	s5,a0
    4168:	00040593          	mv	a1,s0
    416c:	00040513          	mv	a0,s0
    4170:	aa4ff0ef          	jal	ra,3414 <__mulsf3>
    4174:	00040593          	mv	a1,s0
    4178:	a9cff0ef          	jal	ra,3414 <__mulsf3>
    417c:	000a8593          	mv	a1,s5
    4180:	df8ff0ef          	jal	ra,3778 <__subsf3>
    4184:	00012583          	lw	a1,0(sp)
    4188:	df0ff0ef          	jal	ra,3778 <__subsf3>
    418c:	00000593          	li	a1,0
    4190:	9a8ff0ef          	jal	ra,3338 <__lesf2>
    4194:	f4a04ee3          	bgtz	a0,40f0 <main+0xbc>
    4198:	000057b7          	lui	a5,0x5
    419c:	8347a403          	lw	s0,-1996(a5) # 4834 <__clz_tab+0x110>
    41a0:	0180006f          	j	41b8 <main+0x184>
    41a4:	dd4ff0ef          	jal	ra,3778 <__subsf3>
    41a8:	00000593          	li	a1,0
    41ac:	00050413          	mv	s0,a0
    41b0:	8acff0ef          	jal	ra,325c <__gesf2>
    41b4:	44054c63          	bltz	a0,460c <main+0x5d8>
    41b8:	000057b7          	lui	a5,0x5
    41bc:	8307a583          	lw	a1,-2000(a5) # 4830 <__clz_tab+0x10c>
    41c0:	00040513          	mv	a0,s0
    41c4:	a50ff0ef          	jal	ra,3414 <__mulsf3>
    41c8:	00040593          	mv	a1,s0
    41cc:	a48ff0ef          	jal	ra,3414 <__mulsf3>
    41d0:	00098593          	mv	a1,s3
    41d4:	81dfe0ef          	jal	ra,29f0 <__addsf3>
    41d8:	000c0593          	mv	a1,s8
    41dc:	815fe0ef          	jal	ra,29f0 <__addsf3>
    41e0:	000057b7          	lui	a5,0x5
    41e4:	8347a583          	lw	a1,-1996(a5) # 4834 <__clz_tab+0x110>
    41e8:	d90ff0ef          	jal	ra,3778 <__subsf3>
    41ec:	00050593          	mv	a1,a0
    41f0:	00050a13          	mv	s4,a0
    41f4:	a20ff0ef          	jal	ra,3414 <__mulsf3>
    41f8:	000a0593          	mv	a1,s4
    41fc:	a18ff0ef          	jal	ra,3414 <__mulsf3>
    4200:	000a8593          	mv	a1,s5
    4204:	d74ff0ef          	jal	ra,3778 <__subsf3>
    4208:	000057b7          	lui	a5,0x5
    420c:	8387a583          	lw	a1,-1992(a5) # 4838 <__clz_tab+0x114>
    4210:	00050a13          	mv	s4,a0
    4214:	00040513          	mv	a0,s0
    4218:	9fcff0ef          	jal	ra,3414 <__mulsf3>
    421c:	00040593          	mv	a1,s0
    4220:	9f4ff0ef          	jal	ra,3414 <__mulsf3>
    4224:	00048593          	mv	a1,s1
    4228:	9ecff0ef          	jal	ra,3414 <__mulsf3>
    422c:	00048593          	mv	a1,s1
    4230:	9e4ff0ef          	jal	ra,3414 <__mulsf3>
    4234:	00048593          	mv	a1,s1
    4238:	9dcff0ef          	jal	ra,3414 <__mulsf3>
    423c:	00050593          	mv	a1,a0
    4240:	000a0513          	mv	a0,s4
    4244:	d34ff0ef          	jal	ra,3778 <__subsf3>
    4248:	00000593          	li	a1,0
    424c:	8ecff0ef          	jal	ra,3338 <__lesf2>
    4250:	00050793          	mv	a5,a0
    4254:	00005737          	lui	a4,0x5
    4258:	83c72583          	lw	a1,-1988(a4) # 483c <__clz_tab+0x118>
    425c:	00040513          	mv	a0,s0
    4260:	f4f042e3          	bgtz	a5,41a4 <main+0x170>
    4264:	000057b7          	lui	a5,0x5
    4268:	84c7a583          	lw	a1,-1972(a5) # 484c <__clz_tab+0x128>
    426c:	00090513          	mv	a0,s2
    4270:	f80fe0ef          	jal	ra,29f0 <__addsf3>
    4274:	00050593          	mv	a1,a0
    4278:	99cff0ef          	jal	ra,3414 <__mulsf3>
    427c:	00050593          	mv	a1,a0
    4280:	00050a93          	mv	s5,a0
    4284:	00048513          	mv	a0,s1
    4288:	98cff0ef          	jal	ra,3414 <__mulsf3>
    428c:	00048593          	mv	a1,s1
    4290:	984ff0ef          	jal	ra,3414 <__mulsf3>
    4294:	00048593          	mv	a1,s1
    4298:	97cff0ef          	jal	ra,3414 <__mulsf3>
    429c:	000057b7          	lui	a5,0x5
    42a0:	8347ab83          	lw	s7,-1996(a5) # 4834 <__clz_tab+0x110>
    42a4:	00050b13          	mv	s6,a0
    42a8:	0180006f          	j	42c0 <main+0x28c>
    42ac:	cccff0ef          	jal	ra,3778 <__subsf3>
    42b0:	00000593          	li	a1,0
    42b4:	00050b93          	mv	s7,a0
    42b8:	fa5fe0ef          	jal	ra,325c <__gesf2>
    42bc:	34054c63          	bltz	a0,4614 <main+0x5e0>
    42c0:	000057b7          	lui	a5,0x5
    42c4:	8307a583          	lw	a1,-2000(a5) # 4830 <__clz_tab+0x10c>
    42c8:	000b8513          	mv	a0,s7
    42cc:	948ff0ef          	jal	ra,3414 <__mulsf3>
    42d0:	000b8593          	mv	a1,s7
    42d4:	940ff0ef          	jal	ra,3414 <__mulsf3>
    42d8:	000a8593          	mv	a1,s5
    42dc:	f14fe0ef          	jal	ra,29f0 <__addsf3>
    42e0:	000c0593          	mv	a1,s8
    42e4:	f0cfe0ef          	jal	ra,29f0 <__addsf3>
    42e8:	000057b7          	lui	a5,0x5
    42ec:	8347a583          	lw	a1,-1996(a5) # 4834 <__clz_tab+0x110>
    42f0:	c88ff0ef          	jal	ra,3778 <__subsf3>
    42f4:	00050593          	mv	a1,a0
    42f8:	00050a13          	mv	s4,a0
    42fc:	918ff0ef          	jal	ra,3414 <__mulsf3>
    4300:	000a0593          	mv	a1,s4
    4304:	910ff0ef          	jal	ra,3414 <__mulsf3>
    4308:	000b0593          	mv	a1,s6
    430c:	c6cff0ef          	jal	ra,3778 <__subsf3>
    4310:	000057b7          	lui	a5,0x5
    4314:	8387a583          	lw	a1,-1992(a5) # 4838 <__clz_tab+0x114>
    4318:	00050a13          	mv	s4,a0
    431c:	000b8513          	mv	a0,s7
    4320:	8f4ff0ef          	jal	ra,3414 <__mulsf3>
    4324:	000b8593          	mv	a1,s7
    4328:	8ecff0ef          	jal	ra,3414 <__mulsf3>
    432c:	00048593          	mv	a1,s1
    4330:	8e4ff0ef          	jal	ra,3414 <__mulsf3>
    4334:	00048593          	mv	a1,s1
    4338:	8dcff0ef          	jal	ra,3414 <__mulsf3>
    433c:	00048593          	mv	a1,s1
    4340:	8d4ff0ef          	jal	ra,3414 <__mulsf3>
    4344:	00050593          	mv	a1,a0
    4348:	000a0513          	mv	a0,s4
    434c:	c2cff0ef          	jal	ra,3778 <__subsf3>
    4350:	00000593          	li	a1,0
    4354:	fe5fe0ef          	jal	ra,3338 <__lesf2>
    4358:	00050793          	mv	a5,a0
    435c:	00005737          	lui	a4,0x5
    4360:	83c72583          	lw	a1,-1988(a4) # 483c <__clz_tab+0x118>
    4364:	000b8513          	mv	a0,s7
    4368:	f4f042e3          	bgtz	a5,42ac <main+0x278>
    436c:	00040593          	mv	a1,s0
    4370:	000b8513          	mv	a0,s7
    4374:	c04ff0ef          	jal	ra,3778 <__subsf3>
    4378:	00005737          	lui	a4,0x5
    437c:	84c72583          	lw	a1,-1972(a4) # 484c <__clz_tab+0x128>
    4380:	00050793          	mv	a5,a0
    4384:	00048513          	mv	a0,s1
    4388:	00f12223          	sw	a5,4(sp)
    438c:	e64fe0ef          	jal	ra,29f0 <__addsf3>
    4390:	00050593          	mv	a1,a0
    4394:	00050a13          	mv	s4,a0
    4398:	87cff0ef          	jal	ra,3414 <__mulsf3>
    439c:	00050b13          	mv	s6,a0
    43a0:	00098593          	mv	a1,s3
    43a4:	000a0513          	mv	a0,s4
    43a8:	86cff0ef          	jal	ra,3414 <__mulsf3>
    43ac:	000a0593          	mv	a1,s4
    43b0:	864ff0ef          	jal	ra,3414 <__mulsf3>
    43b4:	000a0593          	mv	a1,s4
    43b8:	85cff0ef          	jal	ra,3414 <__mulsf3>
    43bc:	000057b7          	lui	a5,0x5
    43c0:	8347aa83          	lw	s5,-1996(a5) # 4834 <__clz_tab+0x110>
    43c4:	01912823          	sw	s9,16(sp)
    43c8:	01b12623          	sw	s11,12(sp)
    43cc:	000c0c93          	mv	s9,s8
    43d0:	000a8b93          	mv	s7,s5
    43d4:	00090c13          	mv	s8,s2
    43d8:	01a12423          	sw	s10,8(sp)
    43dc:	00048913          	mv	s2,s1
    43e0:	00050d93          	mv	s11,a0
    43e4:	00040493          	mv	s1,s0
    43e8:	000b0413          	mv	s0,s6
    43ec:	00098b13          	mv	s6,s3
    43f0:	0180006f          	j	4408 <main+0x3d4>
    43f4:	b84ff0ef          	jal	ra,3778 <__subsf3>
    43f8:	00000593          	li	a1,0
    43fc:	00050a93          	mv	s5,a0
    4400:	e5dfe0ef          	jal	ra,325c <__gesf2>
    4404:	20054c63          	bltz	a0,461c <main+0x5e8>
    4408:	000057b7          	lui	a5,0x5
    440c:	8307a583          	lw	a1,-2000(a5) # 4830 <__clz_tab+0x10c>
    4410:	000a8513          	mv	a0,s5
    4414:	800ff0ef          	jal	ra,3414 <__mulsf3>
    4418:	000a8593          	mv	a1,s5
    441c:	ff9fe0ef          	jal	ra,3414 <__mulsf3>
    4420:	000b0593          	mv	a1,s6
    4424:	dccfe0ef          	jal	ra,29f0 <__addsf3>
    4428:	00040593          	mv	a1,s0
    442c:	dc4fe0ef          	jal	ra,29f0 <__addsf3>
    4430:	000b8593          	mv	a1,s7
    4434:	b44ff0ef          	jal	ra,3778 <__subsf3>
    4438:	00050593          	mv	a1,a0
    443c:	00050993          	mv	s3,a0
    4440:	fd5fe0ef          	jal	ra,3414 <__mulsf3>
    4444:	00098593          	mv	a1,s3
    4448:	fcdfe0ef          	jal	ra,3414 <__mulsf3>
    444c:	000d8593          	mv	a1,s11
    4450:	b28ff0ef          	jal	ra,3778 <__subsf3>
    4454:	000057b7          	lui	a5,0x5
    4458:	8387a583          	lw	a1,-1992(a5) # 4838 <__clz_tab+0x114>
    445c:	00050993          	mv	s3,a0
    4460:	000a8513          	mv	a0,s5
    4464:	fb1fe0ef          	jal	ra,3414 <__mulsf3>
    4468:	000a8593          	mv	a1,s5
    446c:	fa9fe0ef          	jal	ra,3414 <__mulsf3>
    4470:	000a0593          	mv	a1,s4
    4474:	fa1fe0ef          	jal	ra,3414 <__mulsf3>
    4478:	000a0593          	mv	a1,s4
    447c:	f99fe0ef          	jal	ra,3414 <__mulsf3>
    4480:	000a0593          	mv	a1,s4
    4484:	f91fe0ef          	jal	ra,3414 <__mulsf3>
    4488:	00050593          	mv	a1,a0
    448c:	00098513          	mv	a0,s3
    4490:	ae8ff0ef          	jal	ra,3778 <__subsf3>
    4494:	00000593          	li	a1,0
    4498:	ea1fe0ef          	jal	ra,3338 <__lesf2>
    449c:	00050793          	mv	a5,a0
    44a0:	00005737          	lui	a4,0x5
    44a4:	83c72583          	lw	a1,-1988(a4) # 483c <__clz_tab+0x118>
    44a8:	000a8513          	mv	a0,s5
    44ac:	f4f044e3          	bgtz	a5,43f4 <main+0x3c0>
    44b0:	00048413          	mv	s0,s1
    44b4:	00812d03          	lw	s10,8(sp)
    44b8:	00090493          	mv	s1,s2
    44bc:	00c12d83          	lw	s11,12(sp)
    44c0:	000c0913          	mv	s2,s8
    44c4:	000c8c13          	mv	s8,s9
    44c8:	01012c83          	lw	s9,16(sp)
    44cc:	00040593          	mv	a1,s0
    44d0:	000a8513          	mv	a0,s5
    44d4:	aa4ff0ef          	jal	ra,3778 <__subsf3>
    44d8:	00412583          	lw	a1,4(sp)
    44dc:	00050a93          	mv	s5,a0
    44e0:	00000a13          	li	s4,0
    44e4:	00058513          	mv	a0,a1
    44e8:	f2dfe0ef          	jal	ra,3414 <__mulsf3>
    44ec:	01412583          	lw	a1,20(sp)
    44f0:	d00fe0ef          	jal	ra,29f0 <__addsf3>
    44f4:	00050413          	mv	s0,a0
    44f8:	000a8593          	mv	a1,s5
    44fc:	000a8513          	mv	a0,s5
    4500:	f15fe0ef          	jal	ra,3414 <__mulsf3>
    4504:	00050593          	mv	a1,a0
    4508:	00040513          	mv	a0,s0
    450c:	ce4fe0ef          	jal	ra,29f0 <__addsf3>
    4510:	00000593          	li	a1,0
    4514:	00050413          	mv	s0,a0
    4518:	cd1fe0ef          	jal	ra,31e8 <__eqsf2>
    451c:	06050c63          	beqz	a0,4594 <main+0x560>
    4520:	000057b7          	lui	a5,0x5
    4524:	8407a583          	lw	a1,-1984(a5) # 4840 <__clz_tab+0x11c>
    4528:	00040513          	mv	a0,s0
    452c:	03200b93          	li	s7,50
    4530:	ee5fe0ef          	jal	ra,3414 <__mulsf3>
    4534:	f70ff0ef          	jal	ra,3ca4 <__extendsfdf2>
    4538:	00050b13          	mv	s6,a0
    453c:	00040513          	mv	a0,s0
    4540:	00058413          	mv	s0,a1
    4544:	f60ff0ef          	jal	ra,3ca4 <__extendsfdf2>
    4548:	00050a13          	mv	s4,a0
    454c:	00058993          	mv	s3,a1
    4550:	000b0613          	mv	a2,s6
    4554:	00040693          	mv	a3,s0
    4558:	000a0513          	mv	a0,s4
    455c:	00098593          	mv	a1,s3
    4560:	e08fd0ef          	jal	ra,1b68 <__divdf3>
    4564:	000b0613          	mv	a2,s6
    4568:	00040693          	mv	a3,s0
    456c:	e11fc0ef          	jal	ra,137c <__adddf3>
    4570:	000d0613          	mv	a2,s10
    4574:	000d8693          	mv	a3,s11
    4578:	dbdfd0ef          	jal	ra,2334 <__muldf3>
    457c:	fffb8b93          	addi	s7,s7,-1
    4580:	00050b13          	mv	s6,a0
    4584:	00058413          	mv	s0,a1
    4588:	fc0b94e3          	bnez	s7,4550 <main+0x51c>
    458c:	ff4ff0ef          	jal	ra,3d80 <__truncdfsf2>
    4590:	00050a13          	mv	s4,a0
    4594:	000057b7          	lui	a5,0x5
    4598:	84c7a583          	lw	a1,-1972(a5) # 484c <__clz_tab+0x128>
    459c:	00412503          	lw	a0,4(sp)
    45a0:	00005437          	lui	s0,0x5
    45a4:	82440413          	addi	s0,s0,-2012 # 4824 <__clz_tab+0x100>
    45a8:	c48fe0ef          	jal	ra,29f0 <__addsf3>
    45ac:	000a8593          	mv	a1,s5
    45b0:	9c8ff0ef          	jal	ra,3778 <__subsf3>
    45b4:	000057b7          	lui	a5,0x5
    45b8:	00050993          	mv	s3,a0
    45bc:	8347a503          	lw	a0,-1996(a5) # 4834 <__clz_tab+0x110>
    45c0:	000a0593          	mv	a1,s4
    45c4:	89dfe0ef          	jal	ra,2e60 <__divsf3>
    45c8:	00050593          	mv	a1,a0
    45cc:	00098513          	mv	a0,s3
    45d0:	e45fe0ef          	jal	ra,3414 <__mulsf3>
    45d4:	000057b7          	lui	a5,0x5
    45d8:	8407a583          	lw	a1,-1984(a5) # 4840 <__clz_tab+0x11c>
    45dc:	00078993          	mv	s3,a5
    45e0:	e35fe0ef          	jal	ra,3414 <__mulsf3>
    45e4:	8409a583          	lw	a1,-1984(s3)
    45e8:	c08fe0ef          	jal	ra,29f0 <__addsf3>
    45ec:	01812583          	lw	a1,24(sp)
    45f0:	e25fe0ef          	jal	ra,3414 <__mulsf3>
    45f4:	e40ff0ef          	jal	ra,3c34 <__fixsfsi>
    45f8:	00a40433          	add	s0,s0,a0
    45fc:	00044703          	lbu	a4,0(s0)
    4600:	000307b7          	lui	a5,0x30
    4604:	00e78023          	sb	a4,0(a5) # 30000 <__heap_start+0x2b000>
    4608:	af5ff06f          	j	40fc <main+0xc8>
    460c:	00000413          	li	s0,0
    4610:	c55ff06f          	j	4264 <main+0x230>
    4614:	00000b93          	li	s7,0
    4618:	d55ff06f          	j	436c <main+0x338>
    461c:	00048413          	mv	s0,s1
    4620:	00812d03          	lw	s10,8(sp)
    4624:	00090493          	mv	s1,s2
    4628:	00c12d83          	lw	s11,12(sp)
    462c:	000c0913          	mv	s2,s8
    4630:	00000a93          	li	s5,0
    4634:	000c8c13          	mv	s8,s9
    4638:	01012c83          	lw	s9,16(sp)
    463c:	e91ff06f          	j	44cc <main+0x498>
    4640:	000057b7          	lui	a5,0x5
    4644:	01c12403          	lw	s0,28(sp)
    4648:	85c7a583          	lw	a1,-1956(a5) # 485c <__clz_tab+0x138>
    464c:	00a00713          	li	a4,10
    4650:	000307b7          	lui	a5,0x30
    4654:	00048513          	mv	a0,s1
    4658:	00e78023          	sb	a4,0(a5) # 30000 <__heap_start+0x2b000>
    465c:	91cff0ef          	jal	ra,3778 <__subsf3>
    4660:	fff40413          	addi	s0,s0,-1
    4664:	00050493          	mv	s1,a0
    4668:	a2041ce3          	bnez	s0,40a0 <main+0x6c>
    466c:	05c12083          	lw	ra,92(sp)
    4670:	05812403          	lw	s0,88(sp)
    4674:	05412483          	lw	s1,84(sp)
    4678:	05012903          	lw	s2,80(sp)
    467c:	04c12983          	lw	s3,76(sp)
    4680:	04812a03          	lw	s4,72(sp)
    4684:	04412a83          	lw	s5,68(sp)
    4688:	04012b03          	lw	s6,64(sp)
    468c:	03c12b83          	lw	s7,60(sp)
    4690:	03812c03          	lw	s8,56(sp)
    4694:	03412c83          	lw	s9,52(sp)
    4698:	03012d03          	lw	s10,48(sp)
    469c:	02c12d83          	lw	s11,44(sp)
    46a0:	00000513          	li	a0,0
    46a4:	06010113          	addi	sp,sp,96
    46a8:	00008067          	ret

Disassembly of section .srodata.cst4:

00004830 <.srodata.cst4>:
    4830:	0000                	.2byte	0x0
    4832:	4010                	.2byte	0x4010
    4834:	0000                	.2byte	0x0
    4836:	3f80                	.2byte	0x3f80
    4838:	6666                	.2byte	0x6666
    483a:	3de6                	.2byte	0x3de6
    483c:	3a83126f          	jal	tp,35be4 <__heap_start+0x30be4>
    4840:	0000                	.2byte	0x0
    4842:	3f00                	.2byte	0x3f00
    4844:	0000                	.2byte	0x0
    4846:	bfc0                	.2byte	0xbfc0
    4848:	0000                	.2byte	0x0
    484a:	3fc0                	.2byte	0x3fc0
    484c:	d70a                	.2byte	0xd70a
    484e:	b7173c23          	.4byte	0xb7173c23
    4852:	38d1                	.2byte	0x38d1
    4854:	0000                	.2byte	0x0
    4856:	40a0                	.2byte	0x40a0
    4858:	cccd                	.2byte	0xcccd
    485a:	3ccc                	.2byte	0x3ccc
    485c:	cccd                	.2byte	0xcccd
    485e:	3d4c                	.2byte	0x3d4c

Disassembly of section .srodata.cst8:

00004860 <__bss_end-0x8>:
    4860:	0000                	.2byte	0x0
    4862:	0000                	.2byte	0x0
    4864:	0000                	.2byte	0x0
    4866:	3fe0                	.2byte	0x3fe0
